	.arch armv8-a
	.file	"sobel.cpp"
	.text
.Ltext0:
	.file 0 "/home/cpe_gang/cpe442/perf_testing" "sobel.cpp"
	.section	.rodata
	.align	3
	.type	_ZStL19piecewise_construct, %object
	.size	_ZStL19piecewise_construct, 1
_ZStL19piecewise_construct:
	.zero	1
	.align	3
	.type	_ZStL13allocator_arg, %object
	.size	_ZStL13allocator_arg, 1
_ZStL13allocator_arg:
	.zero	1
	.align	3
	.type	_ZStL6ignore, %object
	.size	_ZStL6ignore, 1
_ZStL6ignore:
	.zero	1
	.align	2
	.type	_ZN9__gnu_cxxL21__default_lock_policyE, %object
	.size	_ZN9__gnu_cxxL21__default_lock_policyE, 4
_ZN9__gnu_cxxL21__default_lock_policyE:
	.word	2
	.align	3
	.type	_ZStL10defer_lock, %object
	.size	_ZStL10defer_lock, 1
_ZStL10defer_lock:
	.zero	1
	.align	3
	.type	_ZStL11try_to_lock, %object
	.size	_ZStL11try_to_lock, 1
_ZStL11try_to_lock:
	.zero	1
	.align	3
	.type	_ZStL10adopt_lock, %object
	.size	_ZStL10adopt_lock, 1
_ZStL10adopt_lock:
	.zero	1
	.local	_ZStL8__ioinit
	.comm	_ZStL8__ioinit,1,8
	.align	3
	.type	_ZN7cvflannL8WORDSIZEE, %object
	.size	_ZN7cvflannL8WORDSIZEE, 8
_ZN7cvflannL8WORDSIZEE:
	.xword	16
	.align	3
	.type	_ZN7cvflannL9BLOCKSIZEE, %object
	.size	_ZN7cvflannL9BLOCKSIZEE, 8
_ZN7cvflannL9BLOCKSIZEE:
	.xword	8192
	.section	.text._Z15apply_greyscalePh,"axG",@progbits,_Z15apply_greyscalePh,comdat
	.align	2
	.weak	_Z15apply_greyscalePh
	.type	_Z15apply_greyscalePh, %function
_Z15apply_greyscalePh:
.LFB13342:
	.file 1 "sobel.cpp"
	.loc 1 7 48
	.cfi_startproc
	sub	sp, sp, #16
	.cfi_def_cfa_offset 16
	str	x0, [sp, 8]
	.loc 1 8 32
	ldr	x0, [sp, 8]
	add	x0, x0, 2
	ldrb	w0, [x0]
	fmov	s0, w0
	.loc 1 8 23
	scvtf	s0, s0
	mov	w0, 5767
	movk	w0, 0x3e99, lsl 16
	fmov	s1, w0
	fmul	s1, s0, s1
	.loc 1 8 58
	ldr	x0, [sp, 8]
	add	x0, x0, 1
	ldrb	w0, [x0]
	fmov	s0, w0
	.loc 1 8 49
	scvtf	s0, s0
	mov	w0, 17826
	movk	w0, 0x3f16, lsl 16
	fmov	s2, w0
	fmul	s0, s0, s2
	.loc 1 8 34
	fadd	s1, s1, s0
	.loc 1 8 83
	ldr	x0, [sp, 8]
	ldrb	w0, [x0]
	fmov	s0, w0
	.loc 1 8 74
	scvtf	s0, s0
	mov	w0, 30933
	movk	w0, 0x3de9, lsl 16
	fmov	s2, w0
	fmul	s0, s0, s2
	.loc 1 8 60
	fadd	s0, s1, s0
	.loc 1 8 83
	fcvtzu	s0, s0
	umov	w0, v0.b[0]
	and	w0, w0, 255
	.loc 1 9 1
	add	sp, sp, 16
	.cfi_def_cfa_offset 0
	ret
	.cfi_endproc
.LFE13342:
	.size	_Z15apply_greyscalePh, .-_Z15apply_greyscalePh
	.text
	.align	2
	.global	_Z15to442_greyscaleRN2cv3MatES1_im
	.type	_Z15to442_greyscaleRN2cv3MatES1_im, %function
_Z15to442_greyscaleRN2cv3MatES1_im:
.LFB13343:
	.loc 1 11 81
	.cfi_startproc
	stp	x29, x30, [sp, -96]!
	.cfi_def_cfa_offset 96
	.cfi_offset 29, -96
	.cfi_offset 30, -88
	mov	x29, sp
	str	x19, [sp, 16]
	.cfi_offset 19, -80
	str	x0, [sp, 56]
	str	x1, [sp, 48]
	str	w2, [sp, 44]
	str	x3, [sp, 32]
	.loc 1 12 21
	ldrsw	x0, [sp, 44]
	.loc 1 12 9
	mov	w1, w0
	ldr	x0, [sp, 32]
	mul	w0, w1, w0
	str	w0, [sp, 84]
	.loc 1 13 29
	ldr	x0, [sp, 32]
	mov	w1, w0
	ldr	w0, [sp, 84]
	add	w0, w1, w0
	.loc 1 13 9
	str	w0, [sp, 80]
.LBB2:
	.loc 1 123 14
	ldr	w0, [sp, 84]
	str	w0, [sp, 92]
	.loc 1 123 5
	b	.L4
.L7:
.LBB3:
	.loc 1 124 48
	ldr	w1, [sp, 92]
	ldr	x0, [sp, 56]
	bl	_ZN2cv3Mat3ptrIhEEPT_i
	str	x0, [sp, 72]
	.loc 1 125 51
	ldr	w1, [sp, 92]
	ldr	x0, [sp, 48]
	bl	_ZN2cv3Mat3ptrIhEEPT_i
	str	x0, [sp, 64]
.LBB4:
	.loc 1 127 18
	str	wzr, [sp, 88]
	.loc 1 127 9
	b	.L5
.L6:
	.loc 1 128 60 discriminator 3
	ldr	w1, [sp, 88]
	mov	w0, w1
	lsl	w0, w0, 1
	add	w0, w0, w1
	sxtw	x0, w0
	.loc 1 128 44 discriminator 3
	ldr	x1, [sp, 72]
	add	x2, x1, x0
	.loc 1 128 22 discriminator 3
	ldrsw	x0, [sp, 88]
	.loc 1 128 25 discriminator 3
	ldr	x1, [sp, 64]
	add	x19, x1, x0
	.loc 1 128 44 discriminator 3
	mov	x0, x2
	bl	_Z15apply_greyscalePh
	and	w0, w0, 255
	.loc 1 128 27 discriminator 3
	strb	w0, [x19]
	.loc 1 127 9 discriminator 3
	ldr	w0, [sp, 88]
	add	w0, w0, 1
	str	w0, [sp, 88]
.L5:
	.loc 1 127 39 discriminator 1
	ldr	x0, [sp, 56]
	ldr	w0, [x0, 12]
	.loc 1 127 31 discriminator 1
	ldr	w1, [sp, 88]
	cmp	w1, w0
	blt	.L6
.LBE4:
.LBE3:
	.loc 1 123 5 discriminator 2
	ldr	w0, [sp, 92]
	add	w0, w0, 1
	str	w0, [sp, 92]
.L4:
	.loc 1 123 35 discriminator 1
	ldr	w1, [sp, 92]
	ldr	w0, [sp, 80]
	cmp	w1, w0
	blt	.L7
.LBE2:
	.loc 1 132 5
	nop
	.loc 1 134 1
	ldr	x19, [sp, 16]
	ldp	x29, x30, [sp], 96
	.cfi_restore 30
	.cfi_restore 29
	.cfi_restore 19
	.cfi_def_cfa_offset 0
	ret
	.cfi_endproc
.LFE13343:
	.size	_Z15to442_greyscaleRN2cv3MatES1_im, .-_Z15to442_greyscaleRN2cv3MatES1_im
	.align	2
	.global	_Z13get_neighborsRN2cv3MatEiiPh
	.type	_Z13get_neighborsRN2cv3MatEiiPh, %function
_Z13get_neighborsRN2cv3MatEiiPh:
.LFB13344:
	.loc 1 137 74
	.cfi_startproc
	stp	x29, x30, [sp, -64]!
	.cfi_def_cfa_offset 64
	.cfi_offset 29, -64
	.cfi_offset 30, -56
	mov	x29, sp
	str	x0, [sp, 40]
	str	w1, [sp, 36]
	str	w2, [sp, 32]
	str	x3, [sp, 24]
	.loc 1 138 45
	mov	w1, 0
	ldr	x0, [sp, 40]
	bl	_ZN2cv3Mat3ptrIhEEPT_i
	str	x0, [sp, 56]
	.loc 1 139 9
	ldr	x0, [sp, 40]
	ldr	w0, [x0, 12]
	str	w0, [sp, 52]
	.loc 1 140 19
	ldr	w1, [sp, 36]
	ldr	w0, [sp, 52]
	mul	w0, w1, w0
	.loc 1 140 9
	ldr	w1, [sp, 32]
	add	w0, w1, w0
	str	w0, [sp, 48]
	.loc 1 142 39
	ldr	w1, [sp, 48]
	ldr	w0, [sp, 52]
	sub	w0, w1, w0
	sxtw	x0, w0
	.loc 1 142 49
	sub	x0, x0, #1
	ldr	x1, [sp, 56]
	add	x0, x1, x0
	ldrb	w1, [x0]
	.loc 1 142 22
	ldr	x0, [sp, 24]
	strb	w1, [x0]
	.loc 1 143 39
	ldr	w1, [sp, 48]
	ldr	w0, [sp, 52]
	sub	w0, w1, w0
	sxtw	x0, w0
	.loc 1 143 45
	ldr	x1, [sp, 56]
	add	x1, x1, x0
	.loc 1 143 20
	ldr	x0, [sp, 24]
	add	x0, x0, 1
	.loc 1 143 45
	ldrb	w1, [x1]
	.loc 1 143 22
	strb	w1, [x0]
	.loc 1 144 39
	ldr	w1, [sp, 48]
	ldr	w0, [sp, 52]
	sub	w0, w1, w0
	sxtw	x0, w0
	.loc 1 144 49
	add	x0, x0, 1
	ldr	x1, [sp, 56]
	add	x1, x1, x0
	.loc 1 144 20
	ldr	x0, [sp, 24]
	add	x0, x0, 2
	.loc 1 144 49
	ldrb	w1, [x1]
	.loc 1 144 22
	strb	w1, [x0]
	.loc 1 145 35
	ldrsw	x0, [sp, 48]
	.loc 1 145 42
	sub	x0, x0, #1
	ldr	x1, [sp, 56]
	add	x1, x1, x0
	.loc 1 145 20
	ldr	x0, [sp, 24]
	add	x0, x0, 3
	.loc 1 145 42
	ldrb	w1, [x1]
	.loc 1 145 22
	strb	w1, [x0]
	.loc 1 146 35
	ldrsw	x0, [sp, 48]
	.loc 1 146 42
	add	x0, x0, 1
	ldr	x1, [sp, 56]
	add	x1, x1, x0
	.loc 1 146 20
	ldr	x0, [sp, 24]
	add	x0, x0, 4
	.loc 1 146 42
	ldrb	w1, [x1]
	.loc 1 146 22
	strb	w1, [x0]
	.loc 1 147 39
	ldr	w1, [sp, 48]
	ldr	w0, [sp, 52]
	add	w0, w1, w0
	sxtw	x0, w0
	.loc 1 147 49
	sub	x0, x0, #1
	ldr	x1, [sp, 56]
	add	x1, x1, x0
	.loc 1 147 20
	ldr	x0, [sp, 24]
	add	x0, x0, 5
	.loc 1 147 49
	ldrb	w1, [x1]
	.loc 1 147 22
	strb	w1, [x0]
	.loc 1 148 39
	ldr	w1, [sp, 48]
	ldr	w0, [sp, 52]
	add	w0, w1, w0
	sxtw	x0, w0
	.loc 1 148 45
	ldr	x1, [sp, 56]
	add	x1, x1, x0
	.loc 1 148 20
	ldr	x0, [sp, 24]
	add	x0, x0, 6
	.loc 1 148 45
	ldrb	w1, [x1]
	.loc 1 148 22
	strb	w1, [x0]
	.loc 1 149 39
	ldr	w1, [sp, 48]
	ldr	w0, [sp, 52]
	add	w0, w1, w0
	sxtw	x0, w0
	.loc 1 149 49
	add	x0, x0, 1
	ldr	x1, [sp, 56]
	add	x1, x1, x0
	.loc 1 149 20
	ldr	x0, [sp, 24]
	add	x0, x0, 7
	.loc 1 149 49
	ldrb	w1, [x1]
	.loc 1 149 22
	strb	w1, [x0]
	.loc 1 151 5
	nop
	.loc 1 152 1
	ldp	x29, x30, [sp], 64
	.cfi_restore 30
	.cfi_restore 29
	.cfi_def_cfa_offset 0
	ret
	.cfi_endproc
.LFE13344:
	.size	_Z13get_neighborsRN2cv3MatEiiPh, .-_Z13get_neighborsRN2cv3MatEiiPh
	.align	2
	.global	_Z20apply_sobel_gradientPh
	.type	_Z20apply_sobel_gradientPh, %function
_Z20apply_sobel_gradientPh:
.LFB13345:
	.loc 1 155 50
	.cfi_startproc
	sub	sp, sp, #48
	.cfi_def_cfa_offset 48
	str	x0, [sp, 8]
	.loc 1 174 18
	mov	x0, 255
	movk	x0, 0xfe01, lsl 16
	movk	x0, 0xff02, lsl 32
	movk	x0, 0x100, lsl 48
	str	x0, [sp, 24]
	.loc 1 175 18
	mov	x0, 513
	movk	x0, 0x1, lsl 16
	movk	x0, 0xff00, lsl 32
	movk	x0, 0xfffe, lsl 48
	str	x0, [sp, 16]
	.loc 1 177 13
	strh	wzr, [sp, 46]
	.loc 1 178 13
	strh	wzr, [sp, 44]
.LBB5:
	.loc 1 180 14
	str	wzr, [sp, 40]
	.loc 1 180 5
	b	.L12
.L13:
	.loc 1 181 25 discriminator 3
	ldrsw	x0, [sp, 40]
	.loc 1 181 26 discriminator 3
	ldr	x1, [sp, 8]
	add	x0, x1, x0
	ldrb	w0, [x0]
	.loc 1 181 12 discriminator 3
	mov	w2, w0
	.loc 1 181 41 discriminator 3
	ldrsw	x0, [sp, 40]
	add	x1, sp, 24
	ldrsb	w0, [x1, x0]
	.loc 1 181 12 discriminator 3
	and	w0, w0, 65535
	mul	w0, w2, w0
	and	w1, w0, 65535
	ldrh	w0, [sp, 46]
	add	w0, w1, w0
	and	w0, w0, 65535
	strh	w0, [sp, 46]
	.loc 1 182 25 discriminator 3
	ldrsw	x0, [sp, 40]
	.loc 1 182 26 discriminator 3
	ldr	x1, [sp, 8]
	add	x0, x1, x0
	ldrb	w0, [x0]
	.loc 1 182 12 discriminator 3
	mov	w2, w0
	.loc 1 182 41 discriminator 3
	ldrsw	x0, [sp, 40]
	add	x1, sp, 16
	ldrsb	w0, [x1, x0]
	.loc 1 182 12 discriminator 3
	and	w0, w0, 65535
	mul	w0, w2, w0
	and	w1, w0, 65535
	ldrh	w0, [sp, 44]
	add	w0, w1, w0
	and	w0, w0, 65535
	strh	w0, [sp, 44]
	.loc 1 180 5 discriminator 3
	ldr	w0, [sp, 40]
	add	w0, w0, 1
	str	w0, [sp, 40]
.L12:
	.loc 1 180 23 discriminator 1
	ldr	w0, [sp, 40]
	cmp	w0, 7
	ble	.L13
.LBE5:
	.loc 1 185 25
	ldrsh	w0, [sp, 46]
	cmp	w0, 0
	csneg	w0, w0, w0, ge
	and	w1, w0, 65535
	.loc 1 185 40
	ldrsh	w0, [sp, 44]
	cmp	w0, 0
	csneg	w0, w0, w0, ge
	and	w0, w0, 65535
	.loc 1 185 30
	add	w0, w1, w0
	and	w0, w0, 65535
	.loc 1 185 13
	strh	w0, [sp, 38]
	.loc 1 187 27
	ldrsh	w2, [sp, 38]
	ldrh	w1, [sp, 38]
	mov	w0, 255
	cmp	w2, 255
	csel	w0, w1, w0, le
	sxth	w0, w0
	.loc 1 187 40
	and	w0, w0, 255
	.loc 1 189 1
	add	sp, sp, 48
	.cfi_def_cfa_offset 0
	ret
	.cfi_endproc
.LFE13345:
	.size	_Z20apply_sobel_gradientPh, .-_Z20apply_sobel_gradientPh
	.align	2
	.global	_Z11to442_sobelRN2cv3MatES1_im
	.type	_Z11to442_sobelRN2cv3MatES1_im, %function
_Z11to442_sobelRN2cv3MatES1_im:
.LFB13346:
	.loc 1 191 77
	.cfi_startproc
	stp	x29, x30, [sp, -96]!
	.cfi_def_cfa_offset 96
	.cfi_offset 29, -96
	.cfi_offset 30, -88
	mov	x29, sp
	str	x19, [sp, 16]
	.cfi_offset 19, -80
	str	x0, [sp, 56]
	str	x1, [sp, 48]
	str	w2, [sp, 44]
	str	x3, [sp, 32]
	.loc 1 192 21
	ldrsw	x0, [sp, 44]
	.loc 1 192 9
	mov	w1, w0
	ldr	x0, [sp, 32]
	mul	w0, w1, w0
	str	w0, [sp, 92]
	.loc 1 193 29
	ldr	x0, [sp, 32]
	mov	w1, w0
	ldr	w0, [sp, 92]
	add	w0, w1, w0
	.loc 1 193 9
	str	w0, [sp, 88]
	.loc 1 195 5
	ldr	w0, [sp, 44]
	cmp	w0, 0
	bne	.L16
	.loc 1 196 18
	ldr	w0, [sp, 92]
	add	w0, w0, 1
	str	w0, [sp, 92]
.L16:
	.loc 1 198 5
	ldr	w0, [sp, 44]
	cmp	w0, 3
	bne	.L17
	.loc 1 199 16
	ldr	w0, [sp, 88]
	sub	w0, w0, #1
	str	w0, [sp, 88]
.L17:
.LBB6:
	.loc 1 203 14
	ldr	w0, [sp, 92]
	str	w0, [sp, 84]
	.loc 1 203 5
	b	.L18
.L21:
.LBB7:
.LBB8:
	.loc 1 204 18
	mov	w0, 1
	str	w0, [sp, 80]
	.loc 1 204 9
	b	.L19
.L20:
	.loc 1 205 26
	add	x0, sp, 72
	mov	x3, x0
	ldr	w2, [sp, 80]
	ldr	w1, [sp, 84]
	ldr	x0, [sp, 56]
	bl	_Z13get_neighborsRN2cv3MatEiiPh
	.loc 1 206 34
	ldr	w2, [sp, 80]
	ldr	w1, [sp, 84]
	ldr	x0, [sp, 48]
	bl	_ZN2cv3Mat2atIhEERT_ii
	mov	x19, x0
	.loc 1 206 67
	add	x0, sp, 72
	bl	_Z20apply_sobel_gradientPh
	and	w0, w0, 255
	.loc 1 206 45
	strb	w0, [x19]
	.loc 1 204 9
	ldr	w0, [sp, 80]
	add	w0, w0, 1
	str	w0, [sp, 80]
.L19:
	.loc 1 204 39 discriminator 1
	ldr	x0, [sp, 56]
	ldr	w0, [x0, 12]
	.loc 1 204 44 discriminator 1
	sub	w0, w0, #1
	.loc 1 204 31 discriminator 1
	ldr	w1, [sp, 80]
	cmp	w1, w0
	blt	.L20
.LBE8:
.LBE7:
	.loc 1 203 5 discriminator 2
	ldr	w0, [sp, 84]
	add	w0, w0, 1
	str	w0, [sp, 84]
.L18:
	.loc 1 203 35 discriminator 1
	ldr	w1, [sp, 84]
	ldr	w0, [sp, 88]
	cmp	w1, w0
	blt	.L21
.LBE6:
	.loc 1 210 5
	nop
	.loc 1 211 1
	ldr	x19, [sp, 16]
	ldp	x29, x30, [sp], 96
	.cfi_restore 30
	.cfi_restore 29
	.cfi_restore 19
	.cfi_def_cfa_offset 0
	ret
	.cfi_endproc
.LFE13346:
	.size	_Z11to442_sobelRN2cv3MatES1_im, .-_Z11to442_sobelRN2cv3MatES1_im
	.section	.text._ZN2cv3Mat3ptrIhEEPT_i,"axG",@progbits,_ZN2cv3Mat3ptrIhEEPT_i,comdat
	.align	2
	.weak	_ZN2cv3Mat3ptrIhEEPT_i
	.type	_ZN2cv3Mat3ptrIhEEPT_i, %function
_ZN2cv3Mat3ptrIhEEPT_i:
.LFB14408:
	.file 2 "/usr/include/opencv4/opencv2/core/mat.inl.hpp"
	.loc 2 713 6
	.cfi_startproc
	sub	sp, sp, #16
	.cfi_def_cfa_offset 16
	str	x0, [sp, 8]
	str	w1, [sp, 4]
	.loc 2 716 19
	ldr	x0, [sp, 8]
	ldr	x1, [x0, 16]
	.loc 2 716 31
	ldr	x0, [sp, 8]
	ldr	x0, [x0, 72]
	.loc 2 716 34
	ldr	x2, [x0]
	.loc 2 716 38
	ldrsw	x0, [sp, 4]
	.loc 2 716 36
	mul	x0, x2, x0
	.loc 2 716 39
	add	x0, x1, x0
	.loc 2 717 1
	add	sp, sp, 16
	.cfi_def_cfa_offset 0
	ret
	.cfi_endproc
.LFE14408:
	.size	_ZN2cv3Mat3ptrIhEEPT_i, .-_ZN2cv3Mat3ptrIhEEPT_i
	.section	.text._ZN2cv3Mat2atIhEERT_ii,"axG",@progbits,_ZN2cv3Mat2atIhEERT_ii,comdat
	.align	2
	.weak	_ZN2cv3Mat2atIhEERT_ii
	.type	_ZN2cv3Mat2atIhEERT_ii, %function
_ZN2cv3Mat2atIhEERT_ii:
.LFB14409:
	.loc 2 894 6
	.cfi_startproc
	sub	sp, sp, #16
	.cfi_def_cfa_offset 16
	str	x0, [sp, 8]
	str	w1, [sp, 4]
	str	w2, [sp]
	.loc 2 901 20
	ldr	x0, [sp, 8]
	ldr	x1, [x0, 16]
	.loc 2 901 32
	ldr	x0, [sp, 8]
	ldr	x0, [x0, 72]
	.loc 2 901 35
	ldr	x2, [x0]
	.loc 2 901 39
	ldrsw	x0, [sp, 4]
	.loc 2 901 37
	mul	x2, x2, x0
	.loc 2 901 44
	ldrsw	x0, [sp]
	.loc 2 901 43
	add	x0, x2, x0
	.loc 2 901 46
	add	x0, x1, x0
	.loc 2 902 1
	add	sp, sp, 16
	.cfi_def_cfa_offset 0
	ret
	.cfi_endproc
.LFE14409:
	.size	_ZN2cv3Mat2atIhEERT_ii, .-_ZN2cv3Mat2atIhEERT_ii
	.text
	.align	2
	.type	_Z41__static_initialization_and_destruction_0ii, %function
_Z41__static_initialization_and_destruction_0ii:
.LFB17585:
	.loc 1 211 1
	.cfi_startproc
	stp	x29, x30, [sp, -32]!
	.cfi_def_cfa_offset 32
	.cfi_offset 29, -32
	.cfi_offset 30, -24
	mov	x29, sp
	str	w0, [sp, 28]
	str	w1, [sp, 24]
	.loc 1 211 1
	ldr	w0, [sp, 28]
	cmp	w0, 1
	bne	.L29
	.loc 1 211 1 is_stmt 0 discriminator 1
	ldr	w1, [sp, 24]
	mov	w0, 65535
	cmp	w1, w0
	bne	.L29
	.file 3 "/usr/include/c++/12/iostream"
	.loc 3 74 25 is_stmt 1
	adrp	x0, _ZStL8__ioinit
	add	x0, x0, :lo12:_ZStL8__ioinit
	bl	_ZNSt8ios_base4InitC1Ev
	adrp	x0, __dso_handle
	add	x2, x0, :lo12:__dso_handle
	adrp	x0, _ZStL8__ioinit
	add	x1, x0, :lo12:_ZStL8__ioinit
	adrp	x0, :got:_ZNSt8ios_base4InitD1Ev
	ldr	x0, [x0, :got_lo12:_ZNSt8ios_base4InitD1Ev]
	bl	__cxa_atexit
.L29:
	.loc 1 211 1
	nop
	ldp	x29, x30, [sp], 32
	.cfi_restore 30
	.cfi_restore 29
	.cfi_def_cfa_offset 0
	ret
	.cfi_endproc
.LFE17585:
	.size	_Z41__static_initialization_and_destruction_0ii, .-_Z41__static_initialization_and_destruction_0ii
	.align	2
	.type	_GLOBAL__sub_I__Z15to442_greyscaleRN2cv3MatES1_im, %function
_GLOBAL__sub_I__Z15to442_greyscaleRN2cv3MatES1_im:
.LFB17944:
	.loc 1 211 1
	.cfi_startproc
	stp	x29, x30, [sp, -16]!
	.cfi_def_cfa_offset 16
	.cfi_offset 29, -16
	.cfi_offset 30, -8
	mov	x29, sp
	.loc 1 211 1
	mov	w1, 65535
	mov	w0, 1
	bl	_Z41__static_initialization_and_destruction_0ii
	ldp	x29, x30, [sp], 16
	.cfi_restore 30
	.cfi_restore 29
	.cfi_def_cfa_offset 0
	ret
	.cfi_endproc
.LFE17944:
	.size	_GLOBAL__sub_I__Z15to442_greyscaleRN2cv3MatES1_im, .-_GLOBAL__sub_I__Z15to442_greyscaleRN2cv3MatES1_im
	.section	.init_array,"aw"
	.align	3
	.xword	_GLOBAL__sub_I__Z15to442_greyscaleRN2cv3MatES1_im
	.text
.Letext0:
	.file 4 "/usr/include/c++/12/cstddef"
	.file 5 "/usr/include/c++/12/cstdint"
	.file 6 "/usr/include/c++/12/type_traits"
	.file 7 "/usr/include/aarch64-linux-gnu/c++/12/bits/c++config.h"
	.file 8 "/usr/include/c++/12/bits/stl_pair.h"
	.file 9 "/usr/include/c++/12/bits/stl_iterator_base_types.h"
	.file 10 "/usr/include/c++/12/debug/debug.h"
	.file 11 "/usr/include/c++/12/new"
	.file 12 "/usr/include/c++/12/cstdlib"
	.file 13 "/usr/include/c++/12/cstring"
	.file 14 "/usr/include/c++/12/cwchar"
	.file 15 "/usr/include/c++/12/bits/char_traits.h"
	.file 16 "/usr/include/c++/12/bits/new_allocator.h"
	.file 17 "/usr/include/c++/12/bits/allocator.h"
	.file 18 "/usr/include/c++/12/clocale"
	.file 19 "/usr/include/c++/12/cstdio"
	.file 20 "/usr/include/c++/12/bits/alloc_traits.h"
	.file 21 "/usr/include/c++/12/bits/basic_string.h"
	.file 22 "/usr/include/c++/12/initializer_list"
	.file 23 "/usr/include/c++/12/bits/stringfwd.h"
	.file 24 "/usr/include/c++/12/cmath"
	.file 25 "/usr/include/c++/12/bits/std_abs.h"
	.file 26 "/usr/include/c++/12/bits/uses_allocator.h"
	.file 27 "/usr/include/c++/12/tuple"
	.file 28 "/usr/include/c++/12/bits/exception_ptr.h"
	.file 29 "/usr/include/c++/12/bits/shared_ptr_base.h"
	.file 30 "/usr/include/c++/12/bits/stl_bvector.h"
	.file 31 "/usr/include/c++/12/bits/stl_iterator.h"
	.file 32 "/usr/include/c++/12/bits/stl_vector.h"
	.file 33 "/usr/include/c++/12/bits/vector.tcc"
	.file 34 "/usr/include/c++/12/bits/shared_ptr.h"
	.file 35 "/usr/include/c++/12/bits/ios_base.h"
	.file 36 "/usr/include/c++/12/cwctype"
	.file 37 "/usr/include/c++/12/functional"
	.file 38 "/usr/include/c++/12/ctime"
	.file 39 "/usr/include/c++/12/bits/chrono.h"
	.file 40 "/usr/include/c++/12/bits/algorithmfwd.h"
	.file 41 "/usr/include/c++/12/bits/std_mutex.h"
	.file 42 "/usr/include/c++/12/bits/stl_tree.h"
	.file 43 "/usr/include/c++/12/bits/stl_function.h"
	.file 44 "/usr/include/c++/12/iosfwd"
	.file 45 "/usr/include/c++/12/bits/stl_map.h"
	.file 46 "/usr/lib/gcc/aarch64-linux-gnu/12/include/stddef.h"
	.file 47 "/usr/include/aarch64-linux-gnu/bits/types.h"
	.file 48 "/usr/include/aarch64-linux-gnu/bits/stdint-intn.h"
	.file 49 "/usr/include/aarch64-linux-gnu/bits/stdint-uintn.h"
	.file 50 "/usr/include/stdint.h"
	.file 51 "/usr/include/opencv4/opencv2/core/hal/interface.h"
	.file 52 "/usr/include/c++/12/bits/predefined_ops.h"
	.file 53 "/usr/include/c++/12/ext/alloc_traits.h"
	.file 54 "/usr/include/c++/12/ext/concurrence.h"
	.file 55 "/usr/include/c++/12/ext/aligned_buffer.h"
	.file 56 "/usr/include/opencv4/opencv2/core/cvdef.h"
	.file 57 "/usr/include/opencv4/opencv2/core/cvstd.hpp"
	.file 58 "/usr/include/opencv4/opencv2/core/cvstd_wrapper.hpp"
	.file 59 "/usr/include/opencv4/opencv2/core/base.hpp"
	.file 60 "/usr/include/opencv4/opencv2/core/check.hpp"
	.file 61 "/usr/include/opencv4/opencv2/core/matx.hpp"
	.file 62 "/usr/include/opencv4/opencv2/core/types.hpp"
	.file 63 "/usr/include/opencv4/opencv2/core/traits.hpp"
	.file 64 "/usr/include/opencv4/opencv2/core/mat.hpp"
	.file 65 "/usr/include/opencv4/opencv2/core/cuda.hpp"
	.file 66 "/usr/include/opencv4/opencv2/flann/miniflann.hpp"
	.file 67 "/usr/include/opencv4/opencv2/flann.hpp"
	.file 68 "/usr/include/opencv4/opencv2/calib3d.hpp"
	.file 69 "/usr/include/opencv4/opencv2/dnn/../dnn/version.hpp"
	.file 70 "/usr/include/opencv4/opencv2/./imgproc/segmentation.hpp"
	.file 71 "/usr/include/stdlib.h"
	.file 72 "/usr/include/aarch64-linux-gnu/bits/types/clock_t.h"
	.file 73 "/usr/include/aarch64-linux-gnu/bits/types/time_t.h"
	.file 74 "/usr/include/string.h"
	.file 75 "/usr/lib/gcc/aarch64-linux-gnu/12/include/stdarg.h"
	.file 76 "/usr/include/aarch64-linux-gnu/bits/types/wint_t.h"
	.file 77 "/usr/include/aarch64-linux-gnu/bits/types/__mbstate_t.h"
	.file 78 "/usr/include/aarch64-linux-gnu/bits/types/mbstate_t.h"
	.file 79 "/usr/include/aarch64-linux-gnu/bits/types/__FILE.h"
	.file 80 "/usr/include/aarch64-linux-gnu/bits/types/struct_FILE.h"
	.file 81 "/usr/include/aarch64-linux-gnu/bits/types/FILE.h"
	.file 82 "/usr/include/wchar.h"
	.file 83 "/usr/include/aarch64-linux-gnu/bits/types/struct_tm.h"
	.file 84 "/usr/include/locale.h"
	.file 85 "/usr/include/aarch64-linux-gnu/bits/types/__fpos_t.h"
	.file 86 "/usr/include/stdio.h"
	.file 87 "/usr/include/math.h"
	.file 88 "/usr/include/pthread.h"
	.file 89 "/usr/include/aarch64-linux-gnu/c++/12/bits/atomic_word.h"
	.file 90 "/usr/include/aarch64-linux-gnu/bits/wctype-wchar.h"
	.file 91 "/usr/include/wctype.h"
	.file 92 "/usr/include/time.h"
	.file 93 "/usr/include/opencv4/opencv2/flann/defines.h"
	.file 94 "/usr/include/opencv4/opencv2/flann/any.h"
	.file 95 "/usr/include/opencv4/opencv2/flann/dist.h"
	.file 96 "/usr/include/opencv4/opencv2/flann/allocator.h"
	.file 97 "/usr/include/opencv4/opencv2/ml.hpp"
	.file 98 "/usr/include/opencv4/opencv2/flann/lsh_table.h"
	.file 99 "/usr/include/opencv4/opencv2/flann/params.h"
	.file 100 "/usr/include/c++/12/stdlib.h"
	.file 101 "/usr/include/c++/12/math.h"
	.file 102 "sobel.hpp"
	.file 103 "<built-in>"