	.arch armv8-a
	.file	"sobel_filter_video.cpp"
	.text
.Ltext0:
	.file 0 "/home/cpe_gang/cpe442/perf_testing" "sobel_filter_video.cpp"
	.section	.rodata
	.align	3
	.type	_ZStL19piecewise_construct, %object
	.size	_ZStL19piecewise_construct, 1
_ZStL19piecewise_construct:
	.zero	1
	.align	3
	.type	_ZStL13allocator_arg, %object
	.size	_ZStL13allocator_arg, 1
_ZStL13allocator_arg:
	.zero	1
	.align	3
	.type	_ZStL6ignore, %object
	.size	_ZStL6ignore, 1
_ZStL6ignore:
	.zero	1
	.align	2
	.type	_ZN9__gnu_cxxL21__default_lock_policyE, %object
	.size	_ZN9__gnu_cxxL21__default_lock_policyE, 4
_ZN9__gnu_cxxL21__default_lock_policyE:
	.word	2
	.section	.text._ZN2cv11_InputArray4initEiPKv,"axG",@progbits,_ZN2cv11_InputArray4initEiPKv,comdat
	.align	2
	.weak	_ZN2cv11_InputArray4initEiPKv
	.type	_ZN2cv11_InputArray4initEiPKv, %function
_ZN2cv11_InputArray4initEiPKv:
.LFB7850:
	.file 1 "/usr/include/opencv4/opencv2/core/mat.inl.hpp"
	.loc 1 92 1
	.cfi_startproc
	sub	sp, sp, #32
	.cfi_def_cfa_offset 32
	str	x0, [sp, 24]
	str	w1, [sp, 20]
	str	x2, [sp, 8]
	.loc 1 92 9
	ldr	x0, [sp, 24]
	ldr	w1, [sp, 20]
	str	w1, [x0]
	.loc 1 92 23
	ldr	x0, [sp, 24]
	ldr	x1, [sp, 8]
	str	x1, [x0, 8]
	.loc 1 92 38
	nop
	add	sp, sp, 32
	.cfi_def_cfa_offset 0
	ret
	.cfi_endproc
.LFE7850:
	.size	_ZN2cv11_InputArray4initEiPKv, .-_ZN2cv11_InputArray4initEiPKv
	.section	.text._ZN2cv11_InputArrayC2Ev,"axG",@progbits,_ZN2cv11_InputArrayC5Ev,comdat
	.align	2
	.weak	_ZN2cv11_InputArrayC2Ev
	.type	_ZN2cv11_InputArrayC2Ev, %function
_ZN2cv11_InputArrayC2Ev:
.LFB7856:
	.loc 1 101 8
	.cfi_startproc
	stp	x29, x30, [sp, -32]!
	.cfi_def_cfa_offset 32
	.cfi_offset 29, -32
	.cfi_offset 30, -24
	mov	x29, sp
	str	x0, [sp, 24]
.LBB4:
	.loc 1 101 33
	ldr	x0, [sp, 24]
	add	x0, x0, 16
	bl	_ZN2cv5Size_IiEC1Ev
	.loc 1 101 41
	mov	x2, 0
	mov	w1, 0
	ldr	x0, [sp, 24]
	bl	_ZN2cv11_InputArray4initEiPKv
.LBE4:
	.loc 1 101 56
	nop
	ldp	x29, x30, [sp], 32
	.cfi_restore 30
	.cfi_restore 29
	.cfi_def_cfa_offset 0
	ret
	.cfi_endproc
.LFE7856:
	.size	_ZN2cv11_InputArrayC2Ev, .-_ZN2cv11_InputArrayC2Ev
	.weak	_ZN2cv11_InputArrayC1Ev
	.set	_ZN2cv11_InputArrayC1Ev,_ZN2cv11_InputArrayC2Ev
	.section	.text._ZN2cv11_InputArrayC2ERKNS_3MatE,"axG",@progbits,_ZN2cv11_InputArrayC5ERKNS_3MatE,comdat
	.align	2
	.weak	_ZN2cv11_InputArrayC2ERKNS_3MatE
	.type	_ZN2cv11_InputArrayC2ERKNS_3MatE, %function
_ZN2cv11_InputArrayC2ERKNS_3MatE:
.LFB7862:
	.loc 1 103 8
	.cfi_startproc
	stp	x29, x30, [sp, -32]!
	.cfi_def_cfa_offset 32
	.cfi_offset 29, -32
	.cfi_offset 30, -24
	mov	x29, sp
	str	x0, [sp, 24]
	str	x1, [sp, 16]
.LBB5:
	.loc 1 103 45
	ldr	x0, [sp, 24]
	add	x0, x0, 16
	bl	_ZN2cv5Size_IiEC1Ev
	.loc 1 103 53
	ldr	x2, [sp, 16]
	mov	w1, 16842752
	ldr	x0, [sp, 24]
	bl	_ZN2cv11_InputArray4initEiPKv
.LBE5:
	.loc 1 103 76
	nop
	ldp	x29, x30, [sp], 32
	.cfi_restore 30
	.cfi_restore 29
	.cfi_def_cfa_offset 0
	ret
	.cfi_endproc
.LFE7862:
	.size	_ZN2cv11_InputArrayC2ERKNS_3MatE, .-_ZN2cv11_InputArrayC2ERKNS_3MatE
	.weak	_ZN2cv11_InputArrayC1ERKNS_3MatE
	.set	_ZN2cv11_InputArrayC1ERKNS_3MatE,_ZN2cv11_InputArrayC2ERKNS_3MatE
	.section	.text._ZN2cv11_InputArrayD2Ev,"axG",@progbits,_ZN2cv11_InputArrayD5Ev,comdat
	.align	2
	.weak	_ZN2cv11_InputArrayD2Ev
	.type	_ZN2cv11_InputArrayD2Ev, %function
_ZN2cv11_InputArrayD2Ev:
.LFB7902:
	.loc 1 178 8
	.cfi_startproc
	sub	sp, sp, #16
	.cfi_def_cfa_offset 16
	str	x0, [sp, 8]
	.loc 1 178 37
	nop
	add	sp, sp, 16
	.cfi_def_cfa_offset 0
	ret
	.cfi_endproc
.LFE7902:
	.size	_ZN2cv11_InputArrayD2Ev, .-_ZN2cv11_InputArrayD2Ev
	.weak	_ZN2cv11_InputArrayD1Ev
	.set	_ZN2cv11_InputArrayD1Ev,_ZN2cv11_InputArrayD2Ev
	.section	.text._ZN2cv12_OutputArrayC2ERNS_3MatE,"axG",@progbits,_ZN2cv12_OutputArrayC5ERNS_3MatE,comdat
	.align	2
	.weak	_ZN2cv12_OutputArrayC2ERNS_3MatE
	.type	_ZN2cv12_OutputArrayC2ERNS_3MatE, %function
_ZN2cv12_OutputArrayC2ERNS_3MatE:
.LFB7920:
	.loc 1 202 8
	.cfi_startproc
	stp	x29, x30, [sp, -32]!
	.cfi_def_cfa_offset 32
	.cfi_offset 29, -32
	.cfi_offset 30, -24
	mov	x29, sp
	str	x0, [sp, 24]
	str	x1, [sp, 16]
.LBB6:
	.loc 1 202 41
	ldr	x0, [sp, 24]
	bl	_ZN2cv11_InputArrayC2Ev
	.loc 1 202 49
	ldr	x0, [sp, 24]
	ldr	x2, [sp, 16]
	mov	w1, 33619968
	bl	_ZN2cv11_InputArray4initEiPKv
.LBE6:
	.loc 1 202 73
	nop
	ldp	x29, x30, [sp], 32
	.cfi_restore 30
	.cfi_restore 29
	.cfi_def_cfa_offset 0
	ret
	.cfi_endproc
.LFE7920:
	.size	_ZN2cv12_OutputArrayC2ERNS_3MatE, .-_ZN2cv12_OutputArrayC2ERNS_3MatE
	.weak	_ZN2cv12_OutputArrayC1ERNS_3MatE
	.set	_ZN2cv12_OutputArrayC1ERNS_3MatE,_ZN2cv12_OutputArrayC2ERNS_3MatE
	.section	.text._ZN2cv12_OutputArrayD2Ev,"axG",@progbits,_ZN2cv12_OutputArrayD5Ev,comdat
	.align	2
	.weak	_ZN2cv12_OutputArrayD2Ev
	.type	_ZN2cv12_OutputArrayD2Ev, %function
_ZN2cv12_OutputArrayD2Ev:
.LFB7984:
	.file 2 "/usr/include/opencv4/opencv2/core/mat.hpp"
	.loc 2 294 18
	.cfi_startproc
	stp	x29, x30, [sp, -32]!
	.cfi_def_cfa_offset 32
	.cfi_offset 29, -32
	.cfi_offset 30, -24
	mov	x29, sp
	str	x0, [sp, 24]
.LBB7:
	.loc 2 294 18
	ldr	x0, [sp, 24]
	bl	_ZN2cv11_InputArrayD2Ev
.LBE7:
	nop
	ldp	x29, x30, [sp], 32
	.cfi_restore 30
	.cfi_restore 29
	.cfi_def_cfa_offset 0
	ret
	.cfi_endproc
.LFE7984:
	.size	_ZN2cv12_OutputArrayD2Ev, .-_ZN2cv12_OutputArrayD2Ev
	.weak	_ZN2cv12_OutputArrayD1Ev
	.set	_ZN2cv12_OutputArrayD1Ev,_ZN2cv12_OutputArrayD2Ev
	.section	.text._ZNSt6chrono8durationIlSt5ratioILl1ELl1000000000EEEC1IlvEERKT_,"axG",@progbits,_ZNSt6chrono8durationIlSt5ratioILl1ELl1000000000EEEC1IlvEERKT_,comdat
	.align	2
	.weak	_ZNSt6chrono8durationIlSt5ratioILl1ELl1000000000EEEC1IlvEERKT_
	.type	_ZNSt6chrono8durationIlSt5ratioILl1ELl1000000000EEEC1IlvEERKT_, %function
_ZNSt6chrono8durationIlSt5ratioILl1ELl1000000000EEEC1IlvEERKT_:
.LFB9719:
	.file 3 "/usr/include/c++/12/bits/chrono.h"
	.loc 3 505 23
	.cfi_startproc
	sub	sp, sp, #16
	.cfi_def_cfa_offset 16
	str	x0, [sp, 8]
	str	x1, [sp]
.LBB8:
	.loc 3 506 10
	ldr	x0, [sp]
	ldr	x1, [x0]
	.loc 3 506 6
	ldr	x0, [sp, 8]
	str	x1, [x0]
.LBE8:
	.loc 3 506 37
	nop
	add	sp, sp, 16
	.cfi_def_cfa_offset 0
	ret
	.cfi_endproc
.LFE9719:
	.size	_ZNSt6chrono8durationIlSt5ratioILl1ELl1000000000EEEC1IlvEERKT_, .-_ZNSt6chrono8durationIlSt5ratioILl1ELl1000000000EEEC1IlvEERKT_
	.section	.text._ZNKSt6chrono8durationIlSt5ratioILl1ELl1000000000EEE5countEv,"axG",@progbits,_ZNKSt6chrono8durationIlSt5ratioILl1ELl1000000000EEE5countEv,comdat
	.align	2
	.weak	_ZNKSt6chrono8durationIlSt5ratioILl1ELl1000000000EEE5countEv
	.type	_ZNKSt6chrono8durationIlSt5ratioILl1ELl1000000000EEE5countEv, %function
_ZNKSt6chrono8durationIlSt5ratioILl1ELl1000000000EEE5countEv:
.LFB9721:
	.loc 3 521 2
	.cfi_startproc
	sub	sp, sp, #16
	.cfi_def_cfa_offset 16
	str	x0, [sp, 8]
	.loc 3 522 11
	ldr	x0, [sp, 8]
	ldr	x0, [x0]
	.loc 3 522 16
	add	sp, sp, 16
	.cfi_def_cfa_offset 0
	ret
	.cfi_endproc
.LFE9721:
	.size	_ZNKSt6chrono8durationIlSt5ratioILl1ELl1000000000EEE5countEv, .-_ZNKSt6chrono8durationIlSt5ratioILl1ELl1000000000EEE5countEv
	.section	.rodata
	.align	3
	.type	_ZStL10defer_lock, %object
	.size	_ZStL10defer_lock, 1
_ZStL10defer_lock:
	.zero	1
	.align	3
	.type	_ZStL11try_to_lock, %object
	.size	_ZStL11try_to_lock, 1
_ZStL11try_to_lock:
	.zero	1
	.align	3
	.type	_ZStL10adopt_lock, %object
	.size	_ZStL10adopt_lock, 1
_ZStL10adopt_lock:
	.zero	1
	.local	_ZStL8__ioinit
	.comm	_ZStL8__ioinit,1,8
	.align	3
	.type	_ZN7cvflannL8WORDSIZEE, %object
	.size	_ZN7cvflannL8WORDSIZEE, 8
_ZN7cvflannL8WORDSIZEE:
	.xword	16
	.align	3
	.type	_ZN7cvflannL9BLOCKSIZEE, %object
	.size	_ZN7cvflannL9BLOCKSIZEE, 8
_ZN7cvflannL9BLOCKSIZEE:
	.xword	8192
	.global	threads
	.bss
	.align	3
	.type	threads, %object
	.size	threads, 32
threads:
	.zero	32
	.global	barrier
	.align	3
	.type	barrier, %object
	.size	barrier, 32
barrier:
	.zero	32
	.section	.text._ZN12threadArgs_tD2Ev,"axG",@progbits,_ZN12threadArgs_tD5Ev,comdat
	.align	2
	.weak	_ZN12threadArgs_tD2Ev
	.type	_ZN12threadArgs_tD2Ev, %function
_ZN12threadArgs_tD2Ev:
.LFB13344:
	.file 4 "sobel_filter_video.cpp"
	.loc 4 10 16
	.cfi_startproc
	stp	x29, x30, [sp, -32]!
	.cfi_def_cfa_offset 32
	.cfi_offset 29, -32
	.cfi_offset 30, -24
	mov	x29, sp
	str	x0, [sp, 24]
.LBB9:
	.loc 4 10 16
	ldr	x0, [sp, 24]
	add	x0, x0, 200
	bl	_ZN2cv3MatD1Ev
	ldr	x0, [sp, 24]
	add	x0, x0, 104
	bl	_ZN2cv3MatD1Ev
	ldr	x0, [sp, 24]
	add	x0, x0, 8
	bl	_ZN2cv3MatD1Ev
.LBE9:
	nop
	ldp	x29, x30, [sp], 32
	.cfi_restore 30
	.cfi_restore 29
	.cfi_def_cfa_offset 0
	ret
	.cfi_endproc
.LFE13344:
	.size	_ZN12threadArgs_tD2Ev, .-_ZN12threadArgs_tD2Ev
	.weak	_ZN12threadArgs_tD1Ev
	.set	_ZN12threadArgs_tD1Ev,_ZN12threadArgs_tD2Ev
	.section	.text._ZN12threadArgs_tC2Ev,"axG",@progbits,_ZN12threadArgs_tC5Ev,comdat
	.align	2
	.weak	_ZN12threadArgs_tC2Ev
	.type	_ZN12threadArgs_tC2Ev, %function
_ZN12threadArgs_tC2Ev:
.LFB13347:
	.loc 4 10 16
	.cfi_startproc
	stp	x29, x30, [sp, -32]!
	.cfi_def_cfa_offset 32
	.cfi_offset 29, -32
	.cfi_offset 30, -24
	mov	x29, sp
	str	x0, [sp, 24]
.LBB10:
	.loc 4 10 16
	ldr	x0, [sp, 24]
	add	x0, x0, 8
	bl	_ZN2cv3MatC1Ev
	ldr	x0, [sp, 24]
	add	x0, x0, 104
	bl	_ZN2cv3MatC1Ev
	ldr	x0, [sp, 24]
	add	x0, x0, 200
	bl	_ZN2cv3MatC1Ev
.LBE10:
	nop
	ldp	x29, x30, [sp], 32
	.cfi_restore 30
	.cfi_restore 29
	.cfi_def_cfa_offset 0
	ret
	.cfi_endproc
.LFE13347:
	.size	_ZN12threadArgs_tC2Ev, .-_ZN12threadArgs_tC2Ev
	.weak	_ZN12threadArgs_tC1Ev
	.set	_ZN12threadArgs_tC1Ev,_ZN12threadArgs_tC2Ev
	.section	.text._ZN12threadArgs_taSEOS_,"axG",@progbits,_ZN12threadArgs_taSEOS_,comdat
	.align	2
	.weak	_ZN12threadArgs_taSEOS_
	.type	_ZN12threadArgs_taSEOS_, %function
_ZN12threadArgs_taSEOS_:
.LFB13349:
	.loc 4 10 16
	.cfi_startproc
	stp	x29, x30, [sp, -32]!
	.cfi_def_cfa_offset 32
	.cfi_offset 29, -32
	.cfi_offset 30, -24
	mov	x29, sp
	str	x0, [sp, 24]
	str	x1, [sp, 16]
	.loc 4 10 16
	ldr	x0, [sp, 16]
	ldr	w1, [x0]
	ldr	x0, [sp, 24]
	str	w1, [x0]
	ldr	x0, [sp, 24]
	add	x2, x0, 8
	ldr	x0, [sp, 16]
	add	x0, x0, 8
	mov	x1, x0
	mov	x0, x2
	bl	_ZN2cv3MataSEOS0_
	ldr	x0, [sp, 24]
	add	x2, x0, 104
	ldr	x0, [sp, 16]
	add	x0, x0, 104
	mov	x1, x0
	mov	x0, x2
	bl	_ZN2cv3MataSEOS0_
	ldr	x0, [sp, 24]
	add	x2, x0, 200
	ldr	x0, [sp, 16]
	add	x0, x0, 200
	mov	x1, x0
	mov	x0, x2
	bl	_ZN2cv3MataSEOS0_
	ldr	x0, [sp, 24]
	ldp	x29, x30, [sp], 32
	.cfi_restore 30
	.cfi_restore 29
	.cfi_def_cfa_offset 0
	ret
	.cfi_endproc
.LFE13349:
	.size	_ZN12threadArgs_taSEOS_, .-_ZN12threadArgs_taSEOS_
	.section	.text._ZNSt6chronomiINS_3_V212system_clockENS_8durationIlSt5ratioILl1ELl1000000000EEEES6_EENSt11common_typeIJT0_T1_EE4typeERKNS_10time_pointIT_S8_EERKNSC_ISD_S9_EE,"axG",@progbits,_ZNSt6chronomiINS_3_V212system_clockENS_8durationIlSt5ratioILl1ELl1000000000EEEES6_EENSt11common_typeIJT0_T1_EE4typeERKNS_10time_pointIT_S8_EERKNSC_ISD_S9_EE,comdat
	.align	2
	.weak	_ZNSt6chronomiINS_3_V212system_clockENS_8durationIlSt5ratioILl1ELl1000000000EEEES6_EENSt11common_typeIJT0_T1_EE4typeERKNS_10time_pointIT_S8_EERKNSC_ISD_S9_EE
	.type	_ZNSt6chronomiINS_3_V212system_clockENS_8durationIlSt5ratioILl1ELl1000000000EEEES6_EENSt11common_typeIJT0_T1_EE4typeERKNS_10time_pointIT_S8_EERKNSC_ISD_S9_EE, %function
_ZNSt6chronomiINS_3_V212system_clockENS_8durationIlSt5ratioILl1ELl1000000000EEEES6_EENSt11common_typeIJT0_T1_EE4typeERKNS_10time_pointIT_S8_EERKNSC_ISD_S9_EE:
.LFB13350:
	.loc 3 1026 7
	.cfi_startproc
	stp	x29, x30, [sp, -48]!
	.cfi_def_cfa_offset 48
	.cfi_offset 29, -48
	.cfi_offset 30, -40
	mov	x29, sp
	str	x0, [sp, 24]
	str	x1, [sp, 16]
	.loc 3 1028 38
	ldr	x0, [sp, 24]
	bl	_ZNKSt6chrono10time_pointINS_3_V212system_clockENS_8durationIlSt5ratioILl1ELl1000000000EEEEE16time_since_epochEv
	str	x0, [sp, 32]
	.loc 3 1028 65
	ldr	x0, [sp, 16]
	bl	_ZNKSt6chrono10time_pointINS_3_V212system_clockENS_8durationIlSt5ratioILl1ELl1000000000EEEEE16time_since_epochEv
	str	x0, [sp, 40]
	.loc 3 1028 41
	add	x1, sp, 40
	add	x0, sp, 32
	bl	_ZNSt6chronomiIlSt5ratioILl1ELl1000000000EElS2_EENSt11common_typeIJNS_8durationIT_T0_EENS4_IT1_T2_EEEE4typeERKS7_RKSA_
	.loc 3 1028 69
	ldp	x29, x30, [sp], 48
	.cfi_restore 30
	.cfi_restore 29
	.cfi_def_cfa_offset 0
	ret
	.cfi_endproc
.LFE13350:
	.size	_ZNSt6chronomiINS_3_V212system_clockENS_8durationIlSt5ratioILl1ELl1000000000EEEES6_EENSt11common_typeIJT0_T1_EE4typeERKNS_10time_pointIT_S8_EERKNSC_ISD_S9_EE, .-_ZNSt6chronomiINS_3_V212system_clockENS_8durationIlSt5ratioILl1ELl1000000000EEEES6_EENSt11common_typeIJT0_T1_EE4typeERKNS_10time_pointIT_S8_EERKNSC_ISD_S9_EE
	.section	.text._ZNKSt6chrono10time_pointINS_3_V212system_clockENS_8durationIlSt5ratioILl1ELl1000000000EEEEE16time_since_epochEv,"axG",@progbits,_ZNKSt6chrono10time_pointINS_3_V212system_clockENS_8durationIlSt5ratioILl1ELl1000000000EEEEE16time_since_epochEv,comdat
	.align	2
	.weak	_ZNKSt6chrono10time_pointINS_3_V212system_clockENS_8durationIlSt5ratioILl1ELl1000000000EEEEE16time_since_epochEv
	.type	_ZNKSt6chrono10time_pointINS_3_V212system_clockENS_8durationIlSt5ratioILl1ELl1000000000EEEEE16time_since_epochEv, %function
_ZNKSt6chrono10time_pointINS_3_V212system_clockENS_8durationIlSt5ratioILl1ELl1000000000EEEEE16time_since_epochEv:
.LFB13351:
	.loc 3 882 2
	.cfi_startproc
	sub	sp, sp, #16
	.cfi_def_cfa_offset 16
	str	x0, [sp, 8]
	.loc 3 883 11
	ldr	x0, [sp, 8]
	ldr	x0, [x0]
	.loc 3 883 16
	add	sp, sp, 16
	.cfi_def_cfa_offset 0
	ret
	.cfi_endproc
.LFE13351:
	.size	_ZNKSt6chrono10time_pointINS_3_V212system_clockENS_8durationIlSt5ratioILl1ELl1000000000EEEEE16time_since_epochEv, .-_ZNKSt6chrono10time_pointINS_3_V212system_clockENS_8durationIlSt5ratioILl1ELl1000000000EEEEE16time_since_epochEv
	.section	.rodata
	.align	3
.LC0:
	.string	"Usage: %s <image_path>\n"
	.align	3
.LC1:
	.string	"Error: Could not open or find the video."
	.align	3
.LC2:
	.string	"Sobel"
	.align	3
.LC3:
	.string	"%f, %d\n"
	.text
	.align	2
	.global	main
	.type	main, %function
main:
.LFB13342:
	.loc 4 20 33
	.cfi_startproc
	.cfi_personality 0x9b,DW.ref.__gxx_personality_v0
	.cfi_lsda 0x1b,.LLSDA13342
	sub	sp, sp, #2176
	.cfi_def_cfa_offset 2176
	stp	x29, x30, [sp]
	.cfi_offset 29, -2176
	.cfi_offset 30, -2168
	mov	x29, sp
	stp	x19, x20, [sp, 16]
	str	x21, [sp, 32]
	.cfi_offset 19, -2160
	.cfi_offset 20, -2152
	.cfi_offset 21, -2144
	str	w0, [sp, 60]
	str	x1, [sp, 48]
	.loc 4 21 5
	ldr	w0, [sp, 60]
	cmp	w0, 2
	beq	.L19
	.loc 4 22 15
	ldr	x0, [sp, 48]
	ldr	x0, [x0]
	mov	x1, x0
	adrp	x0, .LC0
	add	x0, x0, :lo12:.LC0
.LEHB0:
	bl	printf
.LEHE0:
	.loc 4 23 13
	mov	w0, 1
	bl	exit
.L19:
	.loc 4 26 28
	ldr	x0, [sp, 48]
	add	x0, x0, 8
	.loc 4 26 29
	ldr	x19, [x0]
	add	x0, sp, 1640
	bl	_ZNSaIcEC1Ev
	add	x1, sp, 1640
	add	x0, sp, 1608
	mov	x2, x1
	mov	x1, x19
.LEHB1:
	bl	_ZNSt7__cxx1112basic_stringIcSt11char_traitsIcESaIcEEC1EPKcRKS3_
.LEHE1:
	.loc 4 26 29 is_stmt 0 discriminator 2
	add	x1, sp, 1608
	add	x0, sp, 1560
	mov	w2, 0
.LEHB2:
	bl	_ZN2cv12VideoCaptureC1ERKNSt7__cxx1112basic_stringIcSt11char_traitsIcESaIcEEEi
.LEHE2:
	.loc 4 26 29 discriminator 4
	add	x0, sp, 1608
	bl	_ZNSt7__cxx1112basic_stringIcSt11char_traitsIcESaIcEED1Ev
	add	x0, sp, 1640
	bl	_ZNSaIcED1Ev
	.loc 4 27 22 is_stmt 1 discriminator 4
	add	x0, sp, 1560
.LEHB3:
	bl	_ZNK2cv12VideoCapture8isOpenedEv
	and	w0, w0, 255
	.loc 4 27 9 discriminator 4
	eor	w0, w0, 1
	and	w0, w0, 255
	.loc 4 27 5 discriminator 4
	cmp	w0, 0
	beq	.L20
	.loc 4 28 15
	adrp	x0, .LC1
	add	x0, x0, :lo12:.LC1
	bl	puts
	.loc 4 29 13
	mov	w0, 1
	bl	exit
.L20:
	.loc 4 32 25
	mov	w2, 4
	mov	x1, 0
	adrp	x0, barrier
	add	x0, x0, :lo12:barrier
	bl	pthread_barrier_init
	.loc 4 41 12
	str	xzr, [sp, 2168]
	.loc 4 42 57
	bl	_ZNSt6chrono3_V212system_clock3nowEv
	str	x0, [sp, 1552]
	.loc 4 44 23
	add	x0, sp, 1560
	mov	w1, 3
	bl	_ZNK2cv12VideoCapture3getEi
	.loc 4 44 44
	fcvtzs	w0, d0
	str	w0, [sp, 2156]
	.loc 4 45 23
	add	x0, sp, 1560
	mov	w1, 4
	bl	_ZNK2cv12VideoCapture3getEi
	.loc 4 45 45 discriminator 1
	fcvtzs	w0, d0
	str	w0, [sp, 2152]
	.loc 4 47 39 discriminator 1
	add	x0, sp, 1456
	mov	w3, 0
	ldr	w2, [sp, 2156]
	ldr	w1, [sp, 2152]
	bl	_ZN2cv3MatC1Eiii
.LEHE3:
	.loc 4 48 40
	add	x0, sp, 1360
	mov	w3, 0
	ldr	w2, [sp, 2156]
	ldr	w1, [sp, 2152]
.LEHB4:
	bl	_ZN2cv3MatC1Eiii
.LEHE4:
.L35:
.LBB11:
	.loc 4 51 13
	add	x0, sp, 72
	bl	_ZN2cv3MatC1Ev
	.loc 4 52 29
	add	x1, sp, 72
	add	x0, sp, 1648
	bl	_ZN2cv12_OutputArrayC1ERNS_3MatE
	add	x1, sp, 1648
	add	x0, sp, 1560
.LEHB5:
	bl	_ZN2cv12VideoCapture4readERKNS_12_OutputArrayE
.LEHE5:
	and	w0, w0, 255
	strb	w0, [sp, 2151]
	add	x0, sp, 1648
	bl	_ZN2cv12_OutputArrayD1Ev
	.loc 4 53 13
	ldrb	w0, [sp, 2151]
	eor	w0, w0, 1
	and	w0, w0, 255
	.loc 4 53 9
	cmp	w0, 0
	beq	.L21
	.loc 4 55 13
	mov	w19, 0
	b	.L22
.L21:
	.loc 4 65 20
	ldr	x0, [sp, 2168]
	add	x0, x0, 1
	str	x0, [sp, 2168]
	.loc 4 67 44
	add	x0, sp, 168
	mov	x19, 3
	mov	x20, x0
	b	.L23
.L24:
	.loc 4 67 44 is_stmt 0 discriminator 3
	mov	x0, x20
	bl	_ZN12threadArgs_tC1Ev
	sub	x19, x19, #1
	add	x20, x20, 296
.L23:
	.loc 4 67 44 discriminator 1
	cmp	x19, 0
	bge	.L24
.LBB12:
	.loc 4 69 18 is_stmt 1 discriminator 4
	str	wzr, [sp, 2164]
	.loc 4 69 9 discriminator 4
	b	.L25
.L26:
	.loc 4 70 63
	add	x2, sp, 168
	ldrsw	x1, [sp, 2164]
	mov	x0, x1
	lsl	x0, x0, 3
	add	x0, x0, x1
	lsl	x0, x0, 2
	add	x0, x0, x1
	lsl	x0, x0, 3
	add	x21, x2, x0
	.loc 4 101 1
	ldr	w0, [sp, 2164]
	str	w0, [sp, 1672]
	add	x1, sp, 72
	add	x0, sp, 1672
	add	x0, x0, 8
.LEHB6:
	bl	_ZN2cv3MatC1ERKS0_
.LEHE6:
	.loc 4 101 1 is_stmt 0 discriminator 1
	mov	w19, 1
	add	x1, sp, 1456
	add	x0, sp, 1672
	add	x0, x0, 104
.LEHB7:
	bl	_ZN2cv3MatC1ERKS0_
.LEHE7:
	.loc 4 101 1 discriminator 3
	mov	w20, 1
	add	x1, sp, 1360
	add	x0, sp, 1672
	add	x0, x0, 200
.LEHB8:
	bl	_ZN2cv3MatC1ERKS0_
.LEHE8:
	.loc 4 101 1 discriminator 5
	mov	w19, 0
	mov	w20, 0
	.loc 4 70 63 is_stmt 1 discriminator 5
	add	x0, sp, 1672
	mov	x1, x0
	mov	x0, x21
.LEHB9:
	bl	_ZN12threadArgs_taSEOS_
.LEHE9:
	.loc 4 70 63 is_stmt 0 discriminator 2
	add	x0, sp, 1672
	bl	_ZN12threadArgs_tD1Ev
	.loc 4 71 27 is_stmt 1 discriminator 2
	ldrsw	x0, [sp, 2164]
	lsl	x1, x0, 3
	adrp	x0, threads
	add	x0, x0, :lo12:threads
	add	x4, x1, x0
	.loc 4 71 79 discriminator 2
	add	x2, sp, 168
	ldrsw	x1, [sp, 2164]
	mov	x0, x1
	lsl	x0, x0, 3
	add	x0, x0, x1
	lsl	x0, x0, 2
	add	x0, x0, x1
	lsl	x0, x0, 3
	add	x0, x2, x0
	.loc 4 71 27 discriminator 2
	mov	x3, x0
	adrp	x0, _Z23thread_sobelfilter_funcPv
	add	x2, x0, :lo12:_Z23thread_sobelfilter_funcPv
	mov	x1, 0
	mov	x0, x4
	bl	pthread_create
	.loc 4 69 9 discriminator 2
	ldr	w0, [sp, 2164]
	add	w0, w0, 1
	str	w0, [sp, 2164]
.L25:
	.loc 4 69 27 discriminator 2
	ldr	w0, [sp, 2164]
	cmp	w0, 3
	ble	.L26
.LBE12:
.LBB13:
	.loc 4 74 18
	str	wzr, [sp, 2160]
	.loc 4 74 9
	b	.L27
.L28:
	.loc 4 75 25
	adrp	x0, threads
	add	x0, x0, :lo12:threads
	ldrsw	x1, [sp, 2160]
	ldr	x0, [x0, x1, lsl 3]
	mov	x1, 0
.LEHB10:
	bl	pthread_join
.LEHE10:
	.loc 4 74 9 discriminator 2
	ldr	w0, [sp, 2160]
	add	w0, w0, 1
	str	w0, [sp, 2160]
.L27:
	.loc 4 74 27 discriminator 1
	ldr	w0, [sp, 2160]
	cmp	w0, 3
	ble	.L28
.LBE13:
	.loc 4 87 20
	add	x0, sp, 2000
	bl	_ZNSaIcEC1Ev
	add	x0, sp, 2000
	add	x3, sp, 1968
	mov	x2, x0
	adrp	x0, .LC2
	add	x1, x0, :lo12:.LC2
	mov	x0, x3
.LEHB11:
	bl	_ZNSt7__cxx1112basic_stringIcSt11char_traitsIcESaIcEEC1EPKcRKS3_
.LEHE11:
	.loc 4 87 20 is_stmt 0 discriminator 2
	add	x0, sp, 1968
	mov	w1, 0
.LEHB12:
	bl	_ZN2cv11namedWindowERKNSt7__cxx1112basic_stringIcSt11char_traitsIcESaIcEEEi
.LEHE12:
	.loc 4 87 20 discriminator 4
	add	x0, sp, 1968
	bl	_ZNSt7__cxx1112basic_stringIcSt11char_traitsIcESaIcEED1Ev
	add	x0, sp, 2000
	bl	_ZNSaIcED1Ev
	.loc 4 88 21 is_stmt 1 discriminator 4
	add	x0, sp, 2040
	bl	_ZNSaIcEC1Ev
	add	x0, sp, 2040
	add	x3, sp, 2008
	mov	x2, x0
	adrp	x0, .LC2
	add	x1, x0, :lo12:.LC2
	mov	x0, x3
.LEHB13:
	bl	_ZNSt7__cxx1112basic_stringIcSt11char_traitsIcESaIcEEC1EPKcRKS3_
.LEHE13:
	.loc 4 88 21 is_stmt 0 discriminator 2
	add	x0, sp, 2008
	mov	w2, 480
	mov	w1, 720
.LEHB14:
	bl	_ZN2cv12resizeWindowERKNSt7__cxx1112basic_stringIcSt11char_traitsIcESaIcEEEii
.LEHE14:
	.loc 4 88 21 discriminator 4
	add	x0, sp, 2008
	bl	_ZNSt7__cxx1112basic_stringIcSt11char_traitsIcESaIcEED1Ev
	add	x0, sp, 2040
	bl	_ZNSaIcED1Ev
	.loc 4 89 15 is_stmt 1 discriminator 4
	add	x0, sp, 2080
	bl	_ZNSaIcEC1Ev
	add	x0, sp, 2080
	add	x3, sp, 2048
	mov	x2, x0
	adrp	x0, .LC2
	add	x1, x0, :lo12:.LC2
	mov	x0, x3
.LEHB15:
	bl	_ZNSt7__cxx1112basic_stringIcSt11char_traitsIcESaIcEEC1EPKcRKS3_
.LEHE15:
	.loc 4 89 15 is_stmt 0 discriminator 2
	add	x1, sp, 1360
	add	x0, sp, 2088
	bl	_ZN2cv11_InputArrayC1ERKNS_3MatE
	add	x1, sp, 2088
	add	x0, sp, 2048
.LEHB16:
	bl	_ZN2cv6imshowERKNSt7__cxx1112basic_stringIcSt11char_traitsIcESaIcEEERKNS_11_InputArrayE
.LEHE16:
	.loc 4 89 15 discriminator 6
	add	x0, sp, 2088
	bl	_ZN2cv11_InputArrayD1Ev
	add	x0, sp, 2048
	bl	_ZNSt7__cxx1112basic_stringIcSt11char_traitsIcESaIcEED1Ev
	add	x0, sp, 2080
	bl	_ZNSaIcED1Ev
	.loc 4 91 20 is_stmt 1 discriminator 6
	mov	w0, 1
.LEHB17:
	bl	_ZN2cv7waitKeyEi
.LEHE17:
	.loc 4 91 24 discriminator 6
	cmp	w0, 27
	cset	w0, eq
	and	w0, w0, 255
	.loc 4 91 9 discriminator 6
	cmp	w0, 0
	beq	.L29
	.loc 4 91 30 discriminator 2
	mov	w20, 0
	b	.L30
.L29:
	mov	w20, 1
.L30:
	.loc 4 67 44
	add	x19, sp, 168
	add	x19, x19, 1184
.L32:
	.loc 4 92 5
	add	x0, sp, 168
	cmp	x19, x0
	beq	.L31
	.loc 4 67 44
	sub	x19, x19, #296
	mov	x0, x19
	bl	_ZN12threadArgs_tD1Ev
	.loc 4 92 5
	b	.L32
.L31:
	cmp	w20, 1
	beq	.L33
	mov	w19, 0
	b	.L22
.L33:
	mov	w19, 1
.L22:
	.loc 4 92 5 is_stmt 0 discriminator 1
	add	x0, sp, 72
	bl	_ZN2cv3MatD1Ev
	cmp	w19, 1
	bne	.L34
.LBE11:
	.loc 4 92 5
	b	.L35
.L34:
	.loc 4 94 55 is_stmt 1
	bl	_ZNSt6chrono3_V212system_clock3nowEv
	str	x0, [sp, 1352]
	.loc 4 95 85
	add	x1, sp, 1552
	add	x0, sp, 1352
	bl	_ZNSt6chronomiINS_3_V212system_clockENS_8durationIlSt5ratioILl1ELl1000000000EEEES6_EENSt11common_typeIJT0_T1_EE4typeERKNS_10time_pointIT_S8_EERKNSC_ISD_S9_EE
	str	x0, [sp, 2120]
	.loc 4 95 78
	add	x0, sp, 2120
.LEHB18:
	bl	_ZNSt6chrono13duration_castINS_8durationIlSt5ratioILl1ELl1000EEEElS2_ILl1ELl1000000000EEEENSt9enable_ifIXsrNS_13__is_durationIT_EE5valueES8_E4typeERKNS1_IT0_T1_EE
	str	x0, [sp, 2112]
	.loc 4 95 97
	add	x0, sp, 2112
	bl	_ZNKSt6chrono8durationIlSt5ratioILl1ELl1000EEE5countEv
	str	x0, [sp, 2136]
	.loc 4 96 34
	ldr	d0, [sp, 2168]
	ucvtf	d0, d0
	mov	x0, 70368744177664
	movk	x0, 0x408f, lsl 48
	fmov	d1, x0
	fmul	d1, d0, d1
	.loc 4 96 43
	ldr	d0, [sp, 2136]
	scvtf	d0, d0
	.loc 4 96 12
	fdiv	d0, d1, d0
	str	d0, [sp, 2128]
	.loc 4 98 11
	mov	w1, 4
	ldr	d0, [sp, 2128]
	adrp	x0, .LC3
	add	x0, x0, :lo12:.LC3
	bl	printf
.LEHE18:
	.loc 4 100 12
	mov	w19, 0
	.loc 4 101 1
	add	x0, sp, 1360
	bl	_ZN2cv3MatD1Ev
	add	x0, sp, 1456
	bl	_ZN2cv3MatD1Ev
	add	x0, sp, 1560
	bl	_ZN2cv12VideoCaptureD1Ev
	mov	w0, w19
	b	.L74
.L59:
	.loc 4 26 29
	mov	x19, x0
	add	x0, sp, 1608
	bl	_ZNSt7__cxx1112basic_stringIcSt11char_traitsIcESaIcEED1Ev
	b	.L38
.L58:
	mov	x19, x0
.L38:
	.loc 4 26 29 is_stmt 0 discriminator 1
	add	x0, sp, 1640
	bl	_ZNSaIcED1Ev
	mov	x0, x19
.LEHB19:
	bl	_Unwind_Resume
.L62:
.LBB15:
	.loc 4 52 29 is_stmt 1
	mov	x19, x0
	add	x0, sp, 1648
	bl	_ZN2cv12_OutputArrayD1Ev
	b	.L40
.L65:
.LBB14:
	.loc 4 70 63
	mov	x21, x0
	add	x0, sp, 1672
	bl	_ZN12threadArgs_tD1Ev
	b	.L42
.L64:
	.loc 4 101 1
	mov	x21, x0
.L42:
	.loc 4 101 1 is_stmt 0 discriminator 4
	cmp	w20, 0
	beq	.L43
	.loc 4 101 1 discriminator 8
	add	x0, sp, 1672
	add	x0, x0, 104
	bl	_ZN2cv3MatD1Ev
.L43:
	mov	x20, x21
	b	.L44
.L63:
	.loc 4 101 1
	mov	x20, x0
.L44:
	.loc 4 101 1 discriminator 2
	cmp	w19, 0
	beq	.L46
	.loc 4 101 1 discriminator 9
	add	x0, sp, 1672
	add	x0, x0, 8
	bl	_ZN2cv3MatD1Ev
	b	.L46
.L68:
.LBE14:
	.loc 4 87 20 is_stmt 1
	mov	x19, x0
	add	x0, sp, 1968
	bl	_ZNSt7__cxx1112basic_stringIcSt11char_traitsIcESaIcEED1Ev
	b	.L48
.L67:
	mov	x19, x0
.L48:
	.loc 4 87 20 is_stmt 0 discriminator 1
	add	x0, sp, 2000
	bl	_ZNSaIcED1Ev
	mov	x20, x19
	b	.L46
.L70:
	.loc 4 88 21 is_stmt 1
	mov	x19, x0
	add	x0, sp, 2008
	bl	_ZNSt7__cxx1112basic_stringIcSt11char_traitsIcESaIcEED1Ev
	b	.L50
.L69:
	mov	x19, x0
.L50:
	.loc 4 88 21 is_stmt 0 discriminator 1
	add	x0, sp, 2040
	bl	_ZNSaIcED1Ev
	mov	x20, x19
	b	.L46
.L72:
	.loc 4 89 15 is_stmt 1
	mov	x19, x0
	add	x0, sp, 2088
	bl	_ZN2cv11_InputArrayD1Ev
	add	x0, sp, 2048
	bl	_ZNSt7__cxx1112basic_stringIcSt11char_traitsIcESaIcEED1Ev
	b	.L52
.L71:
	mov	x19, x0
.L52:
	.loc 4 89 15 is_stmt 0 discriminator 1
	add	x0, sp, 2080
	bl	_ZNSaIcED1Ev
	mov	x20, x19
	b	.L46
.L66:
	.loc 4 67 44 is_stmt 1
	mov	x20, x0
.L46:
	add	x19, sp, 168
	add	x19, x19, 1184
.L54:
	.loc 4 92 5
	add	x0, sp, 168
	cmp	x19, x0
	beq	.L75
	.loc 4 67 44
	sub	x19, x19, #296
	mov	x0, x19
	bl	_ZN12threadArgs_tD1Ev
	.loc 4 92 5
	b	.L54
.L75:
	.loc 4 67 44
	nop
	mov	x19, x20
.L40:
	.loc 4 92 5
	add	x0, sp, 72
	bl	_ZN2cv3MatD1Ev
	b	.L55
.L73:
.LBE15:
	.loc 4 101 1
	mov	x19, x0
.L55:
	add	x0, sp, 1360
	bl	_ZN2cv3MatD1Ev
	b	.L56
.L61:
	mov	x19, x0
.L56:
	add	x0, sp, 1456
	bl	_ZN2cv3MatD1Ev
	b	.L57
.L60:
	mov	x19, x0
.L57:
	add	x0, sp, 1560
	bl	_ZN2cv12VideoCaptureD1Ev
	mov	x0, x19
	bl	_Unwind_Resume
.LEHE19:
.L74:
	ldp	x19, x20, [sp, 16]
	ldr	x21, [sp, 32]
	ldp	x29, x30, [sp]
	add	sp, sp, 2176
	.cfi_restore 29
	.cfi_restore 30
	.cfi_restore 21
	.cfi_restore 19
	.cfi_restore 20
	.cfi_def_cfa_offset 0
	ret
	.cfi_endproc
.LFE13342:
	.global	__gxx_personality_v0
	.section	.gcc_except_table,"a",@progbits
.LLSDA13342:
	.byte	0xff
	.byte	0xff
	.byte	0x1
	.uleb128 .LLSDACSE13342-.LLSDACSB13342
.LLSDACSB13342:
	.uleb128 .LEHB0-.LFB13342
	.uleb128 .LEHE0-.LEHB0
	.uleb128 0
	.uleb128 0
	.uleb128 .LEHB1-.LFB13342
	.uleb128 .LEHE1-.LEHB1
	.uleb128 .L58-.LFB13342
	.uleb128 0
	.uleb128 .LEHB2-.LFB13342
	.uleb128 .LEHE2-.LEHB2
	.uleb128 .L59-.LFB13342
	.uleb128 0
	.uleb128 .LEHB3-.LFB13342
	.uleb128 .LEHE3-.LEHB3
	.uleb128 .L60-.LFB13342
	.uleb128 0
	.uleb128 .LEHB4-.LFB13342
	.uleb128 .LEHE4-.LEHB4
	.uleb128 .L61-.LFB13342
	.uleb128 0
	.uleb128 .LEHB5-.LFB13342
	.uleb128 .LEHE5-.LEHB5
	.uleb128 .L62-.LFB13342
	.uleb128 0
	.uleb128 .LEHB6-.LFB13342
	.uleb128 .LEHE6-.LEHB6
	.uleb128 .L66-.LFB13342
	.uleb128 0
	.uleb128 .LEHB7-.LFB13342
	.uleb128 .LEHE7-.LEHB7
	.uleb128 .L63-.LFB13342
	.uleb128 0
	.uleb128 .LEHB8-.LFB13342
	.uleb128 .LEHE8-.LEHB8
	.uleb128 .L64-.LFB13342
	.uleb128 0
	.uleb128 .LEHB9-.LFB13342
	.uleb128 .LEHE9-.LEHB9
	.uleb128 .L65-.LFB13342
	.uleb128 0
	.uleb128 .LEHB10-.LFB13342
	.uleb128 .LEHE10-.LEHB10
	.uleb128 .L66-.LFB13342
	.uleb128 0
	.uleb128 .LEHB11-.LFB13342
	.uleb128 .LEHE11-.LEHB11
	.uleb128 .L67-.LFB13342
	.uleb128 0
	.uleb128 .LEHB12-.LFB13342
	.uleb128 .LEHE12-.LEHB12
	.uleb128 .L68-.LFB13342
	.uleb128 0
	.uleb128 .LEHB13-.LFB13342
	.uleb128 .LEHE13-.LEHB13
	.uleb128 .L69-.LFB13342
	.uleb128 0
	.uleb128 .LEHB14-.LFB13342
	.uleb128 .LEHE14-.LEHB14
	.uleb128 .L70-.LFB13342
	.uleb128 0
	.uleb128 .LEHB15-.LFB13342
	.uleb128 .LEHE15-.LEHB15
	.uleb128 .L71-.LFB13342
	.uleb128 0
	.uleb128 .LEHB16-.LFB13342
	.uleb128 .LEHE16-.LEHB16
	.uleb128 .L72-.LFB13342
	.uleb128 0
	.uleb128 .LEHB17-.LFB13342
	.uleb128 .LEHE17-.LEHB17
	.uleb128 .L66-.LFB13342
	.uleb128 0
	.uleb128 .LEHB18-.LFB13342
	.uleb128 .LEHE18-.LEHB18
	.uleb128 .L73-.LFB13342
	.uleb128 0
	.uleb128 .LEHB19-.LFB13342
	.uleb128 .LEHE19-.LEHB19
	.uleb128 0
	.uleb128 0
.LLSDACSE13342:
	.text
	.size	main, .-main
	.align	2
	.global	_Z23thread_sobelfilter_funcPv
	.type	_Z23thread_sobelfilter_funcPv, %function
_Z23thread_sobelfilter_funcPv:
.LFB13352:
	.loc 4 104 48
	.cfi_startproc
	stp	x29, x30, [sp, -48]!
	.cfi_def_cfa_offset 48
	.cfi_offset 29, -48
	.cfi_offset 30, -40
	mov	x29, sp
	str	x0, [sp, 24]
	.loc 4 105 19
	ldr	x0, [sp, 24]
	str	x0, [sp, 40]
	.loc 4 106 38
	ldr	x0, [sp, 40]
	ldr	w0, [x0, 16]
	.loc 4 106 9
	add	w1, w0, 3
	cmp	w0, 0
	csel	w0, w1, w0, lt
	asr	w0, w0, 2
	str	w0, [sp, 36]
	.loc 4 108 27
	ldr	x0, [sp, 40]
	add	x4, x0, 8
	.loc 4 108 40
	ldr	x0, [sp, 40]
	add	x1, x0, 104
	.loc 4 108 20
	ldr	x0, [sp, 40]
	ldr	w0, [x0]
	ldrsw	x2, [sp, 36]
	mov	x3, x2
	mov	w2, w0
	mov	x0, x4
	bl	_Z15to442_greyscaleRN2cv3MatES1_im
	.loc 4 109 25
	adrp	x0, barrier
	add	x0, x0, :lo12:barrier
	bl	pthread_barrier_wait
	.loc 4 110 23
	ldr	x0, [sp, 40]
	add	x4, x0, 104
	.loc 4 110 41
	ldr	x0, [sp, 40]
	add	x1, x0, 200
	.loc 4 110 16
	ldr	x0, [sp, 40]
	ldr	w0, [x0]
	ldrsw	x2, [sp, 36]
	mov	x3, x2
	mov	w2, w0
	mov	x0, x4
	bl	_Z11to442_sobelRN2cv3MatES1_im
	.loc 4 112 17
	mov	x0, 0
	bl	pthread_exit
	.cfi_endproc
.LFE13352:
	.size	_Z23thread_sobelfilter_funcPv, .-_Z23thread_sobelfilter_funcPv
	.section	.text._ZN2cv5Size_IiEC2Ev,"axG",@progbits,_ZN2cv5Size_IiEC5Ev,comdat
	.align	2
	.weak	_ZN2cv5Size_IiEC2Ev
	.type	_ZN2cv5Size_IiEC2Ev, %function
_ZN2cv5Size_IiEC2Ev:
.LFB13629:
	.file 5 "/usr/include/opencv4/opencv2/core/types.hpp"
	.loc 5 1674 1
	.cfi_startproc
	sub	sp, sp, #16
	.cfi_def_cfa_offset 16
	str	x0, [sp, 8]
.LBB16:
	.loc 5 1675 7
	ldr	x0, [sp, 8]
	str	wzr, [x0]
	.loc 5 1675 17
	ldr	x0, [sp, 8]
	str	wzr, [x0, 4]
.LBE16:
	.loc 5 1675 28
	nop
	add	sp, sp, 16
	.cfi_def_cfa_offset 0
	ret
	.cfi_endproc
.LFE13629:
	.size	_ZN2cv5Size_IiEC2Ev, .-_ZN2cv5Size_IiEC2Ev
	.weak	_ZN2cv5Size_IiEC1Ev
	.set	_ZN2cv5Size_IiEC1Ev,_ZN2cv5Size_IiEC2Ev
	.section	.text._ZNSt6chrono13duration_castINS_8durationIlSt5ratioILl1ELl1000EEEElS2_ILl1ELl1000000000EEEENSt9enable_ifIXsrNS_13__is_durationIT_EE5valueES8_E4typeERKNS1_IT0_T1_EE,"axG",@progbits,_ZNSt6chrono13duration_castINS_8durationIlSt5ratioILl1ELl1000EEEElS2_ILl1ELl1000000000EEEENSt9enable_ifIXsrNS_13__is_durationIT_EE5valueES8_E4typeERKNS1_IT0_T1_EE,comdat
	.align	2
	.weak	_ZNSt6chrono13duration_castINS_8durationIlSt5ratioILl1ELl1000EEEElS2_ILl1ELl1000000000EEEENSt9enable_ifIXsrNS_13__is_durationIT_EE5valueES8_E4typeERKNS1_IT0_T1_EE
	.type	_ZNSt6chrono13duration_castINS_8durationIlSt5ratioILl1ELl1000EEEElS2_ILl1ELl1000000000EEEENSt9enable_ifIXsrNS_13__is_durationIT_EE5valueES8_E4typeERKNS1_IT0_T1_EE, %function
_ZNSt6chrono13duration_castINS_8durationIlSt5ratioILl1ELl1000EEEElS2_ILl1ELl1000000000EEEENSt9enable_ifIXsrNS_13__is_durationIT_EE5valueES8_E4typeERKNS1_IT0_T1_EE:
.LFB14413:
	.loc 3 252 7
	.cfi_startproc
	stp	x29, x30, [sp, -32]!
	.cfi_def_cfa_offset 32
	.cfi_offset 29, -32
	.cfi_offset 30, -24
	mov	x29, sp
	str	x0, [sp, 24]
	.loc 3 260 21
	ldr	x0, [sp, 24]
	bl	_ZNSt6chrono20__duration_cast_implINS_8durationIlSt5ratioILl1ELl1000EEEES2_ILl1ELl1000000EElLb1ELb0EE6__castIlS2_ILl1ELl1000000000EEEES4_RKNS1_IT_T0_EE
	.loc 3 261 7
	ldp	x29, x30, [sp], 32
	.cfi_restore 30
	.cfi_restore 29
	.cfi_def_cfa_offset 0
	ret
	.cfi_endproc
.LFE14413:
	.size	_ZNSt6chrono13duration_castINS_8durationIlSt5ratioILl1ELl1000EEEElS2_ILl1ELl1000000000EEEENSt9enable_ifIXsrNS_13__is_durationIT_EE5valueES8_E4typeERKNS1_IT0_T1_EE, .-_ZNSt6chrono13duration_castINS_8durationIlSt5ratioILl1ELl1000EEEElS2_ILl1ELl1000000000EEEENSt9enable_ifIXsrNS_13__is_durationIT_EE5valueES8_E4typeERKNS1_IT0_T1_EE
	.section	.text._ZNKSt6chrono8durationIlSt5ratioILl1ELl1000EEE5countEv,"axG",@progbits,_ZNKSt6chrono8durationIlSt5ratioILl1ELl1000EEE5countEv,comdat
	.align	2
	.weak	_ZNKSt6chrono8durationIlSt5ratioILl1ELl1000EEE5countEv
	.type	_ZNKSt6chrono8durationIlSt5ratioILl1ELl1000EEE5countEv, %function
_ZNKSt6chrono8durationIlSt5ratioILl1ELl1000EEE5countEv:
.LFB14415:
	.loc 3 521 2
	.cfi_startproc
	sub	sp, sp, #16
	.cfi_def_cfa_offset 16
	str	x0, [sp, 8]
	.loc 3 522 11
	ldr	x0, [sp, 8]
	ldr	x0, [x0]
	.loc 3 522 16
	add	sp, sp, 16
	.cfi_def_cfa_offset 0
	ret
	.cfi_endproc
.LFE14415:
	.size	_ZNKSt6chrono8durationIlSt5ratioILl1ELl1000EEE5countEv, .-_ZNKSt6chrono8durationIlSt5ratioILl1ELl1000EEE5countEv
	.section	.text._ZNSt6chronomiIlSt5ratioILl1ELl1000000000EElS2_EENSt11common_typeIJNS_8durationIT_T0_EENS4_IT1_T2_EEEE4typeERKS7_RKSA_,"axG",@progbits,_ZNSt6chronomiIlSt5ratioILl1ELl1000000000EElS2_EENSt11common_typeIJNS_8durationIT_T0_EENS4_IT1_T2_EEEE4typeERKS7_RKSA_,comdat
	.align	2
	.weak	_ZNSt6chronomiIlSt5ratioILl1ELl1000000000EElS2_EENSt11common_typeIJNS_8durationIT_T0_EENS4_IT1_T2_EEEE4typeERKS7_RKSA_
	.type	_ZNSt6chronomiIlSt5ratioILl1ELl1000000000EElS2_EENSt11common_typeIJNS_8durationIT_T0_EENS4_IT1_T2_EEEE4typeERKS7_RKSA_, %function
_ZNSt6chronomiIlSt5ratioILl1ELl1000000000EElS2_EENSt11common_typeIJNS_8durationIT_T0_EENS4_IT1_T2_EEEE4typeERKS7_RKSA_:
.LFB14416:
	.loc 3 644 7
	.cfi_startproc
	stp	x29, x30, [sp, -80]!
	.cfi_def_cfa_offset 80
	.cfi_offset 29, -80
	.cfi_offset 30, -72
	mov	x29, sp
	str	x19, [sp, 16]
	.cfi_offset 19, -64
	str	x0, [sp, 40]
	str	x1, [sp, 32]
	.loc 3 650 14
	ldr	x0, [sp, 40]
	ldr	x0, [x0]
	str	x0, [sp, 64]
	.loc 3 650 31
	add	x0, sp, 64
	bl	_ZNKSt6chrono8durationIlSt5ratioILl1ELl1000000000EEE5countEv
	mov	x19, x0
	.loc 3 650 36
	ldr	x0, [sp, 32]
	ldr	x0, [x0]
	str	x0, [sp, 72]
	.loc 3 650 53
	add	x0, sp, 72
	bl	_ZNKSt6chrono8durationIlSt5ratioILl1ELl1000000000EEE5countEv
	.loc 3 650 34
	sub	x0, x19, x0
	str	x0, [sp, 56]
	.loc 3 650 9
	add	x1, sp, 56
	add	x0, sp, 48
	bl	_ZNSt6chrono8durationIlSt5ratioILl1ELl1000000000EEEC1IlvEERKT_
	.loc 3 650 55
	ldr	x0, [sp, 48]
	.loc 3 651 7
	ldr	x19, [sp, 16]
	ldp	x29, x30, [sp], 80
	.cfi_restore 30
	.cfi_restore 29
	.cfi_restore 19
	.cfi_def_cfa_offset 0
	ret
	.cfi_endproc
.LFE14416:
	.size	_ZNSt6chronomiIlSt5ratioILl1ELl1000000000EElS2_EENSt11common_typeIJNS_8durationIT_T0_EENS4_IT1_T2_EEEE4typeERKS7_RKSA_, .-_ZNSt6chronomiIlSt5ratioILl1ELl1000000000EElS2_EENSt11common_typeIJNS_8durationIT_T0_EENS4_IT1_T2_EEEE4typeERKS7_RKSA_
	.section	.text._ZNSt6chrono20__duration_cast_implINS_8durationIlSt5ratioILl1ELl1000EEEES2_ILl1ELl1000000EElLb1ELb0EE6__castIlS2_ILl1ELl1000000000EEEES4_RKNS1_IT_T0_EE,"axG",@progbits,_ZNSt6chrono20__duration_cast_implINS_8durationIlSt5ratioILl1ELl1000EEEES2_ILl1ELl1000000EElLb1ELb0EE6__castIlS2_ILl1ELl1000000000EEEES4_RKNS1_IT_T0_EE,comdat
	.align	2
	.weak	_ZNSt6chrono20__duration_cast_implINS_8durationIlSt5ratioILl1ELl1000EEEES2_ILl1ELl1000000EElLb1ELb0EE6__castIlS2_ILl1ELl1000000000EEEES4_RKNS1_IT_T0_EE
	.type	_ZNSt6chrono20__duration_cast_implINS_8durationIlSt5ratioILl1ELl1000EEEES2_ILl1ELl1000000EElLb1ELb0EE6__castIlS2_ILl1ELl1000000000EEEES4_RKNS1_IT_T0_EE, %function
_ZNSt6chrono20__duration_cast_implINS_8durationIlSt5ratioILl1ELl1000EEEES2_ILl1ELl1000000EElLb1ELb0EE6__castIlS2_ILl1ELl1000000000EEEES4_RKNS1_IT_T0_EE:
.LFB15271:
	.loc 3 208 4
	.cfi_startproc
	stp	x29, x30, [sp, -48]!
	.cfi_def_cfa_offset 48
	.cfi_offset 29, -48
	.cfi_offset 30, -40
	mov	x29, sp
	str	x0, [sp, 24]
	.loc 3 212 34
	ldr	x0, [sp, 24]
	bl	_ZNKSt6chrono8durationIlSt5ratioILl1ELl1000000000EEE5countEv
	.loc 3 212 38
	mov	x1, 13531
	movk	x1, 0xd7b6, lsl 16
	movk	x1, 0xde82, lsl 32
	movk	x1, 0x431b, lsl 48
	smulh	x1, x0, x1
	asr	x1, x1, 18
	asr	x0, x0, 63
	sub	x0, x1, x0
	.loc 3 211 20
	str	x0, [sp, 40]
	.loc 3 211 13
	add	x1, sp, 40
	add	x0, sp, 32
	bl	_ZNSt6chrono8durationIlSt5ratioILl1ELl1000EEEC1IlvEERKT_
	.loc 3 212 67
	ldr	x0, [sp, 32]
	.loc 3 213 4
	ldp	x29, x30, [sp], 48
	.cfi_restore 30
	.cfi_restore 29
	.cfi_def_cfa_offset 0
	ret
	.cfi_endproc
.LFE15271:
	.size	_ZNSt6chrono20__duration_cast_implINS_8durationIlSt5ratioILl1ELl1000EEEES2_ILl1ELl1000000EElLb1ELb0EE6__castIlS2_ILl1ELl1000000000EEEES4_RKNS1_IT_T0_EE, .-_ZNSt6chrono20__duration_cast_implINS_8durationIlSt5ratioILl1ELl1000EEEES2_ILl1ELl1000000EElLb1ELb0EE6__castIlS2_ILl1ELl1000000000EEEES4_RKNS1_IT_T0_EE
	.section	.text._ZNSt6chrono8durationIlSt5ratioILl1ELl1000EEEC2IlvEERKT_,"axG",@progbits,_ZNSt6chrono8durationIlSt5ratioILl1ELl1000EEEC5IlvEERKT_,comdat
	.align	2
	.weak	_ZNSt6chrono8durationIlSt5ratioILl1ELl1000EEEC2IlvEERKT_
	.type	_ZNSt6chrono8durationIlSt5ratioILl1ELl1000EEEC2IlvEERKT_, %function
_ZNSt6chrono8durationIlSt5ratioILl1ELl1000EEEC2IlvEERKT_:
.LFB15977:
	.loc 3 505 23
	.cfi_startproc
	sub	sp, sp, #16
	.cfi_def_cfa_offset 16
	str	x0, [sp, 8]
	str	x1, [sp]
.LBB17:
	.loc 3 506 10
	ldr	x0, [sp]
	ldr	x1, [x0]
	.loc 3 506 6
	ldr	x0, [sp, 8]
	str	x1, [x0]
.LBE17:
	.loc 3 506 37
	nop
	add	sp, sp, 16
	.cfi_def_cfa_offset 0
	ret
	.cfi_endproc
.LFE15977:
	.size	_ZNSt6chrono8durationIlSt5ratioILl1ELl1000EEEC2IlvEERKT_, .-_ZNSt6chrono8durationIlSt5ratioILl1ELl1000EEEC2IlvEERKT_
	.weak	_ZNSt6chrono8durationIlSt5ratioILl1ELl1000EEEC1IlvEERKT_
	.set	_ZNSt6chrono8durationIlSt5ratioILl1ELl1000EEEC1IlvEERKT_,_ZNSt6chrono8durationIlSt5ratioILl1ELl1000EEEC2IlvEERKT_
	.text
	.align	2
	.type	_Z41__static_initialization_and_destruction_0ii, %function
_Z41__static_initialization_and_destruction_0ii:
.LFB17596:
	.loc 4 113 1
	.cfi_startproc
	stp	x29, x30, [sp, -32]!
	.cfi_def_cfa_offset 32
	.cfi_offset 29, -32
	.cfi_offset 30, -24
	mov	x29, sp
	str	w0, [sp, 28]
	str	w1, [sp, 24]
	.loc 4 113 1
	ldr	w0, [sp, 28]
	cmp	w0, 1
	bne	.L89
	.loc 4 113 1 is_stmt 0 discriminator 1
	ldr	w1, [sp, 24]
	mov	w0, 65535
	cmp	w1, w0
	bne	.L89
	.file 6 "/usr/include/c++/12/iostream"
	.loc 6 74 25 is_stmt 1
	adrp	x0, _ZStL8__ioinit
	add	x0, x0, :lo12:_ZStL8__ioinit
	bl	_ZNSt8ios_base4InitC1Ev
	adrp	x0, __dso_handle
	add	x2, x0, :lo12:__dso_handle
	adrp	x0, _ZStL8__ioinit
	add	x1, x0, :lo12:_ZStL8__ioinit
	adrp	x0, :got:_ZNSt8ios_base4InitD1Ev
	ldr	x0, [x0, :got_lo12:_ZNSt8ios_base4InitD1Ev]
	bl	__cxa_atexit
.L89:
	.loc 4 113 1
	nop
	ldp	x29, x30, [sp], 32
	.cfi_restore 30
	.cfi_restore 29
	.cfi_def_cfa_offset 0
	ret
	.cfi_endproc
.LFE17596:
	.size	_Z41__static_initialization_and_destruction_0ii, .-_Z41__static_initialization_and_destruction_0ii
	.align	2
	.type	_GLOBAL__sub_I_threads, %function
_GLOBAL__sub_I_threads:
.LFB17955:
	.loc 4 113 1
	.cfi_startproc
	stp	x29, x30, [sp, -16]!
	.cfi_def_cfa_offset 16
	.cfi_offset 29, -16
	.cfi_offset 30, -8
	mov	x29, sp
	.loc 4 113 1
	mov	w1, 65535
	mov	w0, 1
	bl	_Z41__static_initialization_and_destruction_0ii
	ldp	x29, x30, [sp], 16
	.cfi_restore 30
	.cfi_restore 29
	.cfi_def_cfa_offset 0
	ret
	.cfi_endproc
.LFE17955:
	.size	_GLOBAL__sub_I_threads, .-_GLOBAL__sub_I_threads
	.section	.init_array,"aw"
	.align	3
	.xword	_GLOBAL__sub_I_threads
	.text
.Letext0:
	.file 7 "/usr/include/c++/12/cstddef"
	.file 8 "/usr/include/c++/12/cstdint"
	.file 9 "/usr/include/c++/12/type_traits"
	.file 10 "/usr/include/aarch64-linux-gnu/c++/12/bits/c++config.h"
	.file 11 "/usr/include/c++/12/bits/stl_pair.h"
	.file 12 "/usr/include/c++/12/bits/stl_iterator_base_types.h"
	.file 13 "/usr/include/c++/12/debug/debug.h"
	.file 14 "/usr/include/c++/12/new"
	.file 15 "/usr/include/c++/12/cstdlib"
	.file 16 "/usr/include/c++/12/cstring"
	.file 17 "/usr/include/c++/12/cwchar"
	.file 18 "/usr/include/c++/12/bits/char_traits.h"
	.file 19 "/usr/include/c++/12/bits/new_allocator.h"
	.file 20 "/usr/include/c++/12/bits/allocator.h"
	.file 21 "/usr/include/c++/12/clocale"
	.file 22 "/usr/include/c++/12/cstdio"
	.file 23 "/usr/include/c++/12/bits/alloc_traits.h"
	.file 24 "/usr/include/c++/12/bits/basic_string.h"
	.file 25 "/usr/include/c++/12/bits/basic_string.tcc"
	.file 26 "/usr/include/c++/12/initializer_list"
	.file 27 "/usr/include/c++/12/bits/stringfwd.h"
	.file 28 "/usr/include/c++/12/cmath"
	.file 29 "/usr/include/c++/12/bits/std_abs.h"
	.file 30 "/usr/include/c++/12/bits/uses_allocator.h"
	.file 31 "/usr/include/c++/12/tuple"
	.file 32 "/usr/include/c++/12/bits/exception_ptr.h"
	.file 33 "/usr/include/c++/12/bits/shared_ptr_base.h"
	.file 34 "/usr/include/c++/12/bits/stl_bvector.h"
	.file 35 "/usr/include/c++/12/bits/stl_iterator.h"
	.file 36 "/usr/include/c++/12/bits/stl_vector.h"
	.file 37 "/usr/include/c++/12/bits/vector.tcc"
	.file 38 "/usr/include/c++/12/bits/shared_ptr.h"
	.file 39 "/usr/include/c++/12/bits/ios_base.h"
	.file 40 "/usr/include/c++/12/cwctype"
	.file 41 "/usr/include/c++/12/functional"
	.file 42 "/usr/include/c++/12/ctime"
	.file 43 "/usr/include/c++/12/ratio"
	.file 44 "/usr/include/c++/12/bits/std_mutex.h"
	.file 45 "/usr/include/c++/12/bits/stl_tree.h"
	.file 46 "/usr/include/c++/12/bits/stl_function.h"
	.file 47 "/usr/include/c++/12/iosfwd"
	.file 48 "/usr/include/c++/12/bits/stl_map.h"
	.file 49 "/usr/include/c++/12/bits/functexcept.h"
	.file 50 "/usr/include/c++/12/bits/stl_iterator_base_funcs.h"
	.file 51 "/usr/lib/gcc/aarch64-linux-gnu/12/include/stddef.h"
	.file 52 "/usr/include/aarch64-linux-gnu/bits/types.h"
	.file 53 "/usr/include/aarch64-linux-gnu/bits/stdint-intn.h"
	.file 54 "/usr/include/aarch64-linux-gnu/bits/stdint-uintn.h"
	.file 55 "/usr/include/stdint.h"
	.file 56 "/usr/include/opencv4/opencv2/core/hal/interface.h"
	.file 57 "/usr/include/c++/12/bits/predefined_ops.h"
	.file 58 "/usr/include/c++/12/ext/alloc_traits.h"
	.file 59 "/usr/include/c++/12/ext/concurrence.h"
	.file 60 "/usr/include/c++/12/ext/aligned_buffer.h"
	.file 61 "/usr/include/opencv4/opencv2/core/cvdef.h"
	.file 62 "/usr/include/opencv4/opencv2/core/cvstd.hpp"
	.file 63 "/usr/include/opencv4/opencv2/core/cvstd_wrapper.hpp"
	.file 64 "/usr/include/opencv4/opencv2/core/base.hpp"
	.file 65 "/usr/include/opencv4/opencv2/core/check.hpp"
	.file 66 "/usr/include/opencv4/opencv2/core/matx.hpp"
	.file 67 "/usr/include/opencv4/opencv2/core/traits.hpp"
	.file 68 "/usr/include/opencv4/opencv2/core/cuda.hpp"
	.file 69 "/usr/include/opencv4/opencv2/flann/miniflann.hpp"
	.file 70 "/usr/include/opencv4/opencv2/flann.hpp"
	.file 71 "/usr/include/opencv4/opencv2/calib3d.hpp"
	.file 72 "/usr/include/opencv4/opencv2/dnn/../dnn/version.hpp"
	.file 73 "/usr/include/opencv4/opencv2/videoio.hpp"
	.file 74 "/usr/include/opencv4/opencv2/highgui.hpp"
	.file 75 "/usr/include/opencv4/opencv2/./imgproc/segmentation.hpp"
	.file 76 "/usr/include/stdlib.h"
	.file 77 "/usr/include/aarch64-linux-gnu/bits/types/clock_t.h"
	.file 78 "/usr/include/aarch64-linux-gnu/bits/types/time_t.h"
	.file 79 "/usr/include/aarch64-linux-gnu/bits/pthreadtypes.h"
	.file 80 "/usr/include/string.h"
	.file 81 "/usr/lib/gcc/aarch64-linux-gnu/12/include/stdarg.h"
	.file 82 "<built-in>"
	.file 83 "/usr/include/aarch64-linux-gnu/bits/types/wint_t.h"
	.file 84 "/usr/include/aarch64-linux-gnu/bits/types/__mbstate_t.h"
	.file 85 "/usr/include/aarch64-linux-gnu/bits/types/mbstate_t.h"
	.file 86 "/usr/include/aarch64-linux-gnu/bits/types/__FILE.h"
	.file 87 "/usr/include/aarch64-linux-gnu/bits/types/struct_FILE.h"
	.file 88 "/usr/include/aarch64-linux-gnu/bits/types/FILE.h"
	.file 89 "/usr/include/wchar.h"
	.file 90 "/usr/include/aarch64-linux-gnu/bits/types/struct_tm.h"
	.file 91 "/usr/include/locale.h"
	.file 92 "/usr/include/aarch64-linux-gnu/bits/types/__fpos_t.h"
	.file 93 "/usr/include/stdio.h"
	.file 94 "/usr/include/math.h"
	.file 95 "/usr/include/pthread.h"
	.file 96 "/usr/include/aarch64-linux-gnu/c++/12/bits/atomic_word.h"
	.file 97 "/usr/include/aarch64-linux-gnu/bits/wctype-wchar.h"
	.file 98 "/usr/include/wctype.h"
	.file 99 "/usr/include/time.h"
	.file 100 "/usr/include/opencv4/opencv2/flann/defines.h"
	.file 101 "/usr/include/opencv4/opencv2/flann/any.h"
	.file 102 "/usr/include/opencv4/opencv2/flann/dist.h"
	.file 103 "/usr/include/opencv4/opencv2/flann/allocator.h"
	.file 104 "/usr/include/opencv4/opencv2/ml.hpp"
	.file 105 "/usr/include/opencv4/opencv2/flann/lsh_table.h"
	.file 106 "/usr/include/opencv4/opencv2/flann/params.h"
	.file 107 "/usr/include/c++/12/stdlib.h"
	.file 108 "/usr/include/c++/12/math.h"
	.file 109 "sobel.hpp"
	.file 110 "/usr/include/c++/12/bits/algorithmfwd.h"